
d3bc8433-2eb5-4c00-a005-3f87c1d3b405.elf:     file format elf32-littlearm
d3bc8433-2eb5-4c00-a005-3f87c1d3b405.elf
architecture: armv7, flags 0x00000150:
HAS_SYMS, DYNAMIC, D_PAGED
start address 0x000015d0

Program Header:
0x70000001 off    0x000163f8 vaddr 0x000153f8 paddr 0x000153f8 align 2**2
         filesz 0x00000ac8 memsz 0x00000ac8 flags r--
    LOAD off    0x00001000 vaddr 0x00000000 paddr 0x00000000 align 2**12
         filesz 0x00015f30 memsz 0x00015f30 flags r-x
    LOAD off    0x00017000 vaddr 0x00016000 paddr 0x00016000 align 2**12
         filesz 0x0000032c memsz 0x0000b3d8 flags rw-
 DYNAMIC off    0x00017000 vaddr 0x00016000 paddr 0x00016000 align 2**2
         filesz 0x00000088 memsz 0x00000088 flags rw-
   STACK off    0x00000000 vaddr 0x00000000 paddr 0x00000000 align 2**4
         filesz 0x00000000 memsz 0x00000000 flags rwx

Dynamic Section:
  HASH                 0x00015f14
  GNU_HASH             0x00014474
  STRTAB               0x00015f00
  SYMTAB               0x00015ec0
  STRSZ                0x00000011
  SYMENT               0x00000010
  DEBUG                0x00000000
  REL                  0x000160e4
  RELSZ                0x00000138
  RELENT               0x00000008
  FLAGS_1              0x08000000
  RELCOUNT             0x00000013
private flags = 5000400: [Version5 EABI] [hard-float ABI]

Sections:
Idx Name          Size      VMA       LMA       File off  Algn
  0 .ta_head      00000020  00000000  00000000  00001000  2**3
                  CONTENTS, ALLOC, LOAD, READONLY, DATA
  1 .text         00012bd2  00000020  00000020  00001020  2**2
                  CONTENTS, ALLOC, LOAD, READONLY, CODE
  2 .rodata       0000187e  00012bf4  00012bf4  00013bf4  2**2
                  CONTENTS, ALLOC, LOAD, READONLY, DATA
  3 .gnu.hash     00000020  00014474  00014474  00015474  2**2
                  CONTENTS, ALLOC, LOAD, READONLY, DATA
  4 .ARM.extab    00000f64  00014494  00014494  00015494  2**2
                  CONTENTS, ALLOC, LOAD, READONLY, DATA
  5 .ARM.exidx    00000ac8  000153f8  000153f8  000163f8  2**2
                  CONTENTS, ALLOC, LOAD, READONLY, DATA
  6 .dynsym       00000040  00015ec0  00015ec0  00016ec0  2**2
                  CONTENTS, ALLOC, LOAD, READONLY, DATA
  7 .dynstr       00000011  00015f00  00015f00  00016f00  2**0
                  CONTENTS, ALLOC, LOAD, READONLY, DATA
  8 .hash         0000001c  00015f14  00015f14  00016f14  2**2
                  CONTENTS, ALLOC, LOAD, READONLY, DATA
  9 .dynamic      00000088  00016000  00016000  00017000  2**2
                  CONTENTS, ALLOC, LOAD, DATA
 10 .got          0000005c  00016088  00016088  00017088  2**2
                  CONTENTS, ALLOC, LOAD, DATA
 11 .rel.got      000000a0  0001617c  0001617c  0001717c  2**2
                  CONTENTS, ALLOC, LOAD, READONLY, DATA
 12 .data         00000110  0001621c  0001621c  0001721c  2**2
                  CONTENTS, ALLOC, LOAD, DATA
 13 .bss          0000b0ac  0001632c  0001632c  0001732c  2**2
                  ALLOC
 14 .debug_info   0000d5a1  00000000  00000000  0001732c  2**0
                  CONTENTS, READONLY, DEBUGGING
 15 .debug_abbrev 00002b76  00000000  00000000  000248cd  2**0
                  CONTENTS, READONLY, DEBUGGING
 16 .debug_aranges 000005a8  00000000  00000000  00027448  2**3
                  CONTENTS, READONLY, DEBUGGING
 17 .debug_macro  00018708  00000000  00000000  000279f0  2**0
                  CONTENTS, READONLY, DEBUGGING
 18 .debug_line   0000a444  00000000  00000000  000400f8  2**0
                  CONTENTS, READONLY, DEBUGGING
 19 .debug_str    000179ff  00000000  00000000  0004a53c  2**0
                  CONTENTS, READONLY, DEBUGGING
 20 .comment      0000005a  00000000  00000000  00061f3b  2**0
                  CONTENTS, READONLY
 21 .ARM.attributes 00000033  00000000  00000000  00061f95  2**0
                  CONTENTS, READONLY
 22 .debug_frame  00003464  00000000  00000000  00061fc8  2**2
                  CONTENTS, READONLY, DEBUGGING
 23 .rel.dyn      00000098  000160e4  000160e4  000170e4  2**2
                  CONTENTS, ALLOC, LOAD, READONLY, DATA
 24 .debug_ranges 00000228  00000000  00000000  00065430  2**3
                  CONTENTS, READONLY, DEBUGGING
SYMBOL TABLE:
00000000 l    d  .ta_head	00000000 .ta_head
00000020 l    d  .text	00000000 .text
00012bf4 l    d  .rodata	00000000 .rodata
00014474 l    d  .gnu.hash	00000000 .gnu.hash
00014494 l    d  .ARM.extab	00000000 .ARM.extab
000153f8 l    d  .ARM.exidx	00000000 .ARM.exidx
00015ec0 l    d  .dynsym	00000000 .dynsym
00015f00 l    d  .dynstr	00000000 .dynstr
00015f14 l    d  .hash	00000000 .hash
00016000 l    d  .dynamic	00000000 .dynamic
00016088 l    d  .got	00000000 .got
0001617c l    d  .rel.got	00000000 .rel.got
0001621c l    d  .data	00000000 .data
0001632c l    d  .bss	00000000 .bss
00000000 l    d  .debug_info	00000000 .debug_info
00000000 l    d  .debug_abbrev	00000000 .debug_abbrev
00000000 l    d  .debug_aranges	00000000 .debug_aranges
00000000 l    d  .debug_macro	00000000 .debug_macro
00000000 l    d  .debug_line	00000000 .debug_line
00000000 l    d  .debug_str	00000000 .debug_str
00000000 l    d  .comment	00000000 .comment
00000000 l    d  .ARM.attributes	00000000 .ARM.attributes
00000000 l    d  .debug_frame	00000000 .debug_frame
000160e4 l    d  .rel.dyn	00000000 .rel.dyn
00000000 l    d  .debug_ranges	00000000 .debug_ranges
00000000 l    df *ABS*	00000000 user_ta_header.c
000133c8 l     O .rodata	00000001 __compound_literal.0
000133c9 l     O .rodata	00000001 __compound_literal.1
000133ca l     O .rodata	00000001 __compound_literal.2
000133cc l     O .rodata	00000004 __compound_literal.3
000133d0 l     O .rodata	00000004 __compound_literal.4
00000000 l    df *ABS*	00000000 ta1.c
00016384 l     O .bss	00000004 connections_head
00000200 l     F .text	00000094 ta2tee_algo_id
000132c8 l     O .rodata	0000000f __func__.6447
00000294 l     F .text	00000058 ta2tee_key_size
000132d8 l     O .rodata	00000010 __func__.6454
000002ec l     F .text	0000006c ta2tee_mode_id
000132e8 l     O .rodata	0000000f __func__.6462
00000358 l     F .text	00000240 alloc_resources
000132f8 l     O .rodata	00000010 __func__.6473
00000598 l     F .text	0000016c set_aes_key
00013308 l     O .rodata	0000000c __func__.6483
00000704 l     F .text	00000110 reset_aes_iv
00013314 l     O .rodata	0000000d __func__.6496
00000814 l     F .text	000002a0 set_key
00013324 l     O .rodata	00000008 __func__.6514
0001332c l     O .rodata	00000013 __func__.6563
00013340 l     O .rodata	00000014 __func__.6637
00013354 l     O .rodata	00000015 __func__.6641
0001336c l     O .rodata	00000019 __func__.6647
00013388 l     O .rodata	0000001a __func__.6652
000133a4 l     O .rodata	0000001b __func__.6665
00000000 l    df *ABS*	00000000 ./ta_entry_a32.o
00000000 l    df *ABS*	00000000 bget_malloc.c
000015d4 l     F .text	0000001a tag_asan_free
000015ee l     F .text	0000001a tag_asan_alloced
00001608 l     F .text	00000024 memset_unchecked
0000162c l     F .text	00000024 memcpy_unchecked
00013764 l     O .rodata	00000005 __func__.5880
0001376c l     O .rodata	00000006 __func__.5895
00013774 l     O .rodata	00000006 __func__.5904
0001377c l     O .rodata	00000005 __func__.5913
00013784 l     O .rodata	00000006 __func__.5922
0001378c l     O .rodata	00000007 __func__.5932
00001ef4 l     F .text	0000001c malloc_lock
00001f10 l     F .text	0000001a malloc_unlock
000162bc l     O .data	0000005c malloc_ctx
00001f2a l     F .text	0000001a print_oom
00001f44 l     F .text	00000064 raw_malloc_return_hook
00001fa8 l     F .text	00000044 gen_malloc_reset_stats
00002008 l     F .text	00000042 gen_malloc_get_stats
00002070 l     F .text	00000018 raw_malloc_validate_pools
00002088 l     F .text	0000002c bpool_foreach_iterator_init
000020b4 l     F .text	000000d8 bpool_foreach_pool
00013794 l     O .rodata	00000013 __func__.5994
0000218c l     F .text	00000076 bpool_foreach
00002202 l     F .text	000000a4 raw_malloc
000022a6 l     F .text	00000032 raw_free
000022d8 l     F .text	000000f4 raw_calloc
000023cc l     F .text	000000a2 raw_realloc
0000246e l     F .text	0000005a bget_buf_size
000137a8 l     O .rodata	0000000e __func__.6047
00002518 l     F .text	0000004c free_helper
000025b8 l     F .text	0000002e realloc_unlocked
00002634 l     F .text	00000026 get_payload_start_size
00002696 l     F .text	00000146 gen_malloc_add_pool
000137b8 l     O .rodata	00000014 __func__.6096
000027dc l     F .text	000000a8 gen_malloc_buffer_is_within_alloced
00002884 l     F .text	000000ba gen_malloc_buffer_overlaps_heap
00000000 l    df *ABS*	00000000 trace.c
00002a30 l     F .text	00000054 trace_level_to_string
000137f0 l     O .rodata	00000005 lvl_strs.5721
00002a84 l     F .text	00000060 print_thread_id
00002ae4 l     F .text	0000001e print_core_id
00000000 l    df *ABS*	00000000 snprintk.c
000137f8 l     O .rodata	00000011 hexdigits
0001380c l     O .rodata	00000011 HEXDIGITS
00002fc0 l     F .text	00000e14 kprintf
00002f22 l     F .text	0000009e uuid2str
00000000 l    df *ABS*	00000000 arm32_aeabi_ldivmod_a32.o
00000000 l    df *ABS*	00000000 assert.c
00000000 l    df *ABS*	00000000 trace_ext.c
00000000 l    df *ABS*	00000000 tee_api.c
0001e388 l     O .bss	00000004 tee_api_instance_data
00003f70 l     F .text	000002d0 copy_param
00004240 l     F .text	00000110 update_out_param
000138b8 l     O .rodata	0000000b __func__.6981
00000000 l    df *ABS*	00000000 tee_api_operations.c
0000498c l     F .text	0000005a __tee_alg_get_class
000049e6 l     F .text	00000046 __tee_alg_get_main_alg
00004a2c l     F .text	00000036 __tee_alg_get_key_type
00004a62 l     F .text	0000020e __tee_alg_get_digest_size
000061f4 l     F .text	00000048 init_hash_operation
000063e2 l     F .text	0000030c tee_buffer_update
00000000 l    df *ABS*	00000000 tee_api_panic.c
000082b2 l     F .text	00000024 check_res
000082d6 l     F .text	00000040 check_access
00000000 l    df *ABS*	00000000 tee_system_pta.c
000084b4 l     F .text	00000042 reg_pair_to_64
000084f6 l     F .text	00000032 reg_pair_from_64
00008528 l     F .text	0000007c invoke_system_pta
0001e38c l     O .bss	00000004 sess.6380
00013958 l     O .rodata	00000010 uuid.6381
00013968 l     O .rodata	0000000a __func__.6401
00000000 l    df *ABS*	00000000 utee_syscalls_a32.o
00000000 l    df *ABS*	00000000 user_ta_entry.c
00008b98 l     F .text	00000010 __utee_gprof_init
00008ba8 l     F .text	00000010 __utee_gprof_fini
00016318 l     O .data	00000008 ta_sessions
0001e3c0 l     O .bss	00000001 init_done
00016320 l     O .data	00000008 __phdr_info_head
0001e3c4 l     O .bss	00000004 _num_mod_init
00008bb8 l     F .text	000000cc _init_iterate_phdr_cb
00013990 l     O .rodata	00000016 __func__.7019
00008c84 l     F .text	000000fc _get_fn_array
00008ecc l     F .text	00000074 _fini_iterate_phdr_cb
00008f60 l     F .text	0000005c init_instance
00008fbc l     F .text	00000018 uninit_instance
00008fd4 l     F .text	0000005c ta_header_save_params
00009030 l     F .text	00000044 ta_header_get_session
00009074 l     F .text	000000c0 ta_header_add_session
00009134 l     F .text	000000d4 ta_header_remove_session
00009208 l     F .text	00000154 to_utee_params
0000935c l     F .text	000000e2 from_utee_params
0000943e l     F .text	0000008e entry_open_session
000094cc l     F .text	00000040 entry_close_session
0000950c l     F .text	00000070 entry_invoke_command
00000000 l    df *ABS*	00000000 abort.c
00000000 l    df *ABS*	00000000 tee_api_arith_mpi.c
00009614 l     F .text	00000030 api_panic
00009644 l     F .text	00000030 mpi_panic
0001e3c8 l     O .bss	00003000 data.6963
00013a74 l     O .rodata	00000012 __func__.6964
000096dc l     F .text	00000090 copy_mpi_to_bigint
0000976c l     F .text	000000a0 get_mpi
00013a88 l     O .rodata	00000008 __func__.6997
00013a90 l     O .rodata	0000000f __func__.7003
00013aa0 l     O .rodata	0000001f __func__.7021
00013ac0 l     O .rodata	00000019 __func__.7028
00013adc l     O .rodata	00000015 __func__.7059
00009da2 l     F .text	000000fe bigint_binary
00013af4 l     O .rodata	0000000e __func__.7094
00009ea0 l     F .text	0000017c bigint_binary_mod
00013b04 l     O .rodata	00000012 __func__.7106
00013b18 l     O .rodata	0000000e __func__.7134
00013b28 l     O .rodata	0000000e __func__.7163
00013b38 l     O .rodata	0000000e __func__.7171
00013b48 l     O .rodata	00000011 __func__.7200
00013b5c l     O .rodata	00000018 __func__.7217
0000a6ac l     F .text	0000002a mpi_is_odd
0000a6d6 l     F .text	00000032 mpi_is_even
0000a708 l     F .text	00000794 mpi_egcd
00013b74 l     O .rodata	00000009 __func__.7240
00013b80 l     O .rodata	0000001d __func__.7297
0000b134 l     F .text	00000030 rng_read
00013ba0 l     O .rodata	00000019 __func__.7350
00013bbc l     O .rodata	00000015 __func__.7365
00000000 l    df *ABS*	00000000 tcb.c
000213c8 l     O .bss	00000004 _tcb
000213cc l     O .bss	00000004 _tls_size
00013c70 l     O .rodata	00000010 __func__.6132
00013c80 l     O .rodata	00000010 __func__.6159
00000000 l    df *ABS*	00000000 bignum.c
0000b854 l     F .text	00000024 mbedtls_mpi_zeroize
0000b878 l     F .text	0000003a mpi_init
0000c198 l     F .text	0000004e mbedtls_clz
0000c282 l     F .text	00000082 mpi_get_digit
0000c516 l     F .text	000000da mpi_write_hlp
0000c7e8 l     F .text	0000005a mpi_uint_bigendian_to_host_c
0000c842 l     F .text	0000001c mpi_uint_bigendian_to_host
0000c85e l     F .text	00000072 mpi_bigendian_to_host
0000d1a0 l     F .text	00000052 ct_lt_mpi_uint
0000d508 l     F .text	000000c8 mpi_sub_hlp
0000d8a4 l     F .text	00000f46 mpi_mul_hlp
0000e9ba l     F .text	000000ac mbedtls_int_div_int
00013ca4 l     O .rodata	000002a0 small_prime
00010360 l     F .text	000000ac mpi_check_small_factors
0001040c l     F .text	000002d2 mpi_miller_rabin
00013f44 l     O .rodata	00000024 gcd_pairs
00000000 l    df *ABS*	00000000 platform_util.c
00016328 l     O .data	00000004 memset_func
00000000 l    df *ABS*	00000000 mempool.c
00011018 l     F .text	00000018 get_pool
00011030 l     F .text	00000018 put_pool
00014450 l     O .rodata	00000013 __func__.5772
00014464 l     O .rodata	0000000e __func__.5781
00000000 l    df *ABS*	00000000 memcpy.c
00000000 l    df *ABS*	00000000 memset.c
00000000 l    df *ABS*	00000000 aeabi_unwind.c
00000000 l    df *ABS*	00000000 memchr.c
00000000 l    df *ABS*	00000000 strlen.c
00000000 l    df *ABS*	00000000 arm32_aeabi_ldivmod.c
000116c0 l     F .text	000000f0 division_lqr
000117b0 l     F .text	0000005e ul_div_qr
00000000 l    df *ABS*	00000000 tee_api_objects.c
00000000 l    df *ABS*	00000000 snprintf.c
00000000 l    df *ABS*	00000000 memmove.c
00000000 l    df *ABS*	00000000 consttime_memcmp.c
00000000 l    df *ABS*	00000000 
00016000 l     O *ABS*	00000000 _DYNAMIC
00016088 l     O *ABS*	00000000 _GLOBAL_OFFSET_TABLE_
00003f38 g     F .text	00000038 putchar
00001340 g     F .text	00000060 entry
00011f0e g     F .text	00000146 TEE_PopulateTransientObject
0000b234 g     F .text	00000024 TEE_BigIntConvertToFMM
0000a4b4 g     F .text	00000024 TEE_BigIntSquareMod
00009b6a g     F .text	000001ba TEE_BigIntShiftRight
0000b998 g     F .text	00000108 mbedtls_mpi_grow
00011870 g     F .text	000000de __l_divmod
0000623c g     F .text	0000005c TEE_DigestUpdate
000048e4 g     F .text	00000020 TEE_Realloc
00005e9a g     F .text	00000232 TEE_SetOperationKey2
00008480 g     F .text	00000034 __utee_check_inout_annotation
00003e98 g     F .text	00000068 printf
00012054 g     F .text	00000048 TEE_InitRefAttribute
00008710 g     F .text	00000014 _utee_log
0000446e g     F .text	00000126 TEE_InvokeTACommand
00008316 g     F .text	0000005a __utee_check_outbuf_annotation
0000b8d0 g     F .text	0000003c mbedtls_mpi_init_mempool
000089ac g     F .text	00000014 _utee_cryp_random_number_generate
0000cb30 g     F .text	000000e4 mbedtls_mpi_write_binary
000070e4 g     F .text	00000208 TEE_AEEncryptFinal
00016260 g     O .data	00000004 public_key
00002e4e g     F .text	0000002e vsnprintk
0000d854 g     F .text	00000050 mbedtls_mpi_sub_int
00012a00 g     F .text	0000013e memmove
00012996 g     F .text	0000003c snprintf
00009b2e g     F .text	0000003c TEE_BigIntCmpS32
0001209c g     F .text	00000048 TEE_InitValueAttribute
0000baa0 g     F .text	00000154 mbedtls_mpi_shrink
000114f2 g     F .text	00000010 __aeabi_unwind_cpp_pr0
0000a01c g     F .text	00000034 TEE_BigIntAdd
0000016c g     F .text	00000094 find_connections
0000890c g     F .text	00000014 _utee_cryp_obj_restrict_usage
000133c4 g     O .rodata	00000004 ta_heap_size
00011eae g     F .text	00000060 TEE_ResetTransientObject
00008a34 g     F .text	00000018 _utee_asymm_operate
0000c304 g     F .text	00000212 mbedtls_mpi_read_string
0000634a g     F .text	00000098 TEE_CipherInit
0000a084 g     F .text	000000b0 TEE_BigIntNeg
00008ad0 g     F .text	00000014 _utee_storage_free_enum
00000020 g       .text	00000000 __text_start
00012622 g     F .text	0000005a TEE_StartPersistentObjectEnumerator
0000cd96 g     F .text	0000016a mbedtls_mpi_shift_r
00002994 g     F .text	0000002c malloc_buffer_overlaps_heap
00008874 g     F .text	00000014 _utee_hash_init
0000a444 g     F .text	00000038 TEE_BigIntSubMod
000012f8 g     F .text	00000048 output
000107b2 g     F .text	00000314 mbedtls_mpi_gen_prime
0000c002 g     F .text	0000004e mbedtls_mpi_get_bit
0000c99a g     F .text	000000c0 mbedtls_mpi_read_binary
00006de6 g     F .text	000000ee TEE_AEInit
00002b02 g     F .text	00000036 trace_printf
0000f324 g     F .text	00000130 mbedtls_mpi_montmul
00008b84 g     F .text	00000014 _utee_cache_operation
000112e4 g     F .text	000000f2 memcpy
0000b258 g     F .text	0000009c TEE_BigIntConvertFromFMM
00016370 g     O .bss	00000004 total_node
00008298 g     F .text	0000001a TEE_Panic
00003dec g     F .text	00000018 __aeabi_uldivmod
000060cc g     F .text	00000128 TEE_CopyOperation
00003f00 g     F .text	00000038 puts
0000b2f4 g     F .text	00000110 TEE_BigIntComputeFMM
0000204a g     F .text	00000026 malloc_get_stats
00004850 g     F .text	0000002c TEE_GetREETime
00012564 g     F .text	0000005a TEE_AllocatePersistentObjectEnumerator
00016268 g     O .data	00000054 ta_props
000074b8 g     F .text	0000019e TEE_AsymmetricEncrypt
00008370 g     F .text	00000040 __utee_check_instring_annotation
000024c8 g     F .text	00000050 malloc
000112ac g     F .text	00000024 __ta_entry_c
000121e8 g     F .text	00000108 TEE_GenerateKey
000129d2 g     F .text	0000002e vsnprintf
00016264 g     O .data	00000004 trace_level
00009ad8 g     F .text	00000056 TEE_BigIntCmp
00013490 g     O .rodata	00000004 ta_num_props
00001958 g     F .text	000000c0 bgetr
00008a64 g     F .text	00000018 _utee_storage_obj_open
00000e68 g     F .text	00000490 handle_output
0001122e g     F .text	0000007c mempool_free
000066ee g     F .text	000001ae TEE_CipherUpdate
00008888 g     F .text	00000014 _utee_hash_update
000098fe g     F .text	00000086 TEE_BigIntConvertToOctetString
00005b04 g     F .text	000001cc TEE_GetOperationInfoMultiple
0000c1e6 g     F .text	00000078 mbedtls_mpi_bitlen
00009d24 g     F .text	00000046 TEE_BigIntGetBit
000133c0 g     O .rodata	00000003 trace_ext_prefix
00008b0c g     F .text	00000014 _utee_storage_next_enum
000018c0 g     F .text	00000098 bgetz
00004698 g     F .text	0000001c TEE_GetInstanceData
0000474e g     F .text	00000038 TEE_Wait
0000e7ea g     F .text	00000192 mbedtls_mpi_mul_mpi
00011512 g     F .text	00000010 __aeabi_unwind_cpp_pr2
00004942 g     F .text	00000024 TEE_CacheFlush
00002b38 g     F .text	000002c0 trace_vprintf
000013d4 g     F .text	00000030 TA_DestroyEntryPoint
0000b8b2 g     F .text	0000001e mbedtls_mpi_init
00008a94 g     F .text	00000014 _utee_storage_obj_del
0000c11e g     F .text	0000007a mbedtls_mpi_lsb
00003e04 g     F .text	00000048 _assert_log
0000884c g     F .text	00000014 _utee_cryp_state_copy
0000b218 g     F .text	0000001c TEE_BigIntFMMContextSizeInU32
0000863c g     F .text	000000ac tee_unmap
00006d0c g     F .text	000000da TEE_MACCompareFinal
000124f4 g     F .text	00000070 TEE_RenamePersistentObject
00006298 g     F .text	000000b2 TEE_DigestDoFinal
00009674 g     F .text	00000068 _TEE_MathAPI_Init
0000b404 g     F .text	00000310 __utee_tcb_init
0000d6ac g     F .text	000000ac mbedtls_mpi_add_mpi
000095f4 g     F .text	00000020 abort
00008408 g     F .text	00000034 __utee_check_out_annotation
00016388 g     O .bss	00008000 ta_heap
0000a4d8 g     F .text	0000010c TEE_BigIntInvMod
00008d80 g     F .text	0000014c __utee_call_elf_init_fn
000014a0 g     F .text	0000008c TA_CloseSessionEntryPoint
0000877c g     F .text	00000014 _utee_close_ta_session
00000048 g     F .text	0000009c connections_add
00007656 g     F .text	0000019e TEE_AsymmetricDecrypt
000122f0 g     F .text	000000b4 TEE_OpenPersistentObject
0000d758 g     F .text	000000ac mbedtls_mpi_sub_mpi
00012b3e g     F .text	000000b4 consttime_memcmp
000086fc g     F .text	00000014 _utee_return
00008724 g     F .text	00000014 __utee_panic
0000b714 g     F .text	00000038 __tls_get_addr
0000152c g     F .text	000000a4 TA_InvokeCommandEntryPoint
00008f40 g     F .text	00000020 __utee_call_elf_fini_fn
00002678 g     F .text	0000001e free_wipe
000110bc g     F .text	000000f4 mempool_alloc
000086e8 g     F .text	00000014 _utee_panic
000111b0 g     F .text	0000007e mempool_calloc
00008b70 g     F .text	00000014 _utee_cryp_obj_generate_key
00008b48 g     F .text	00000014 _utee_storage_obj_trunc
000120e4 g     F .text	0000004c TEE_CopyObjectAttributes
000087d0 g     F .text	00000014 _utee_unmask_cancellation
00002564 g     F .text	00000054 calloc
0000487c g     F .text	00000068 TEE_Malloc
00004630 g     F .text	00000042 TEE_CheckMemoryAccessRights
0001180e g     F .text	00000062 __ul_divmod
00008738 g     F .text	00000018 _utee_get_property
0000bf94 g     F .text	0000006e mbedtls_mpi_lset
00012732 g     F .text	00000086 TEE_ReadObjectData
00011c00 g     F .text	000000c0 TEE_GetObjectBufferAttribute
00001404 g     F .text	0000009c TA_OpenSessionEntryPoint
00005a4c g     F .text	0000004a TEE_FreeOperation
0000b74c g     F .text	00000108 dl_iterate_phdr
000213d8 g       .bss	00000000 __ftrace_buf_end
0001e390 g     O .bss	00000004 ta_param_types
0000f0ac g     F .text	00000052 mbedtls_mpi_div_int
0001194e g     F .text	00000160 __utee_from_attr
000106de g     F .text	000000ac mbedtls_mpi_is_prime_ext
0000b164 g     F .text	00000054 TEE_BigIntIsProbablePrime
0000e97c g     F .text	0000003e mbedtls_mpi_mul_int
000124ae g     F .text	00000046 TEE_CloseAndDeletePersistentObject1
0000f49a g     F .text	00000762 mbedtls_mpi_exp_mod
0000bd0e g     F .text	00000114 mbedtls_mpi_safe_cond_assign
0000d1f2 g     F .text	0000013e mbedtls_mpi_lt_mpi_ct
000072ec g     F .text	000001cc TEE_AEDecryptFinal
0000980c g     F .text	00000078 TEE_BigIntInit
000083b0 g     F .text	00000058 __utee_check_outstring_annotation
000046b4 g     F .text	00000024 TEE_MemMove
00010fe8 g     F .text	00000030 mbedtls_platform_zeroize
00009884 g     F .text	0000007a TEE_BigIntConvertFromOctetString
00008a1c g     F .text	00000018 _utee_authenc_dec_final
0000cf00 g     F .text	0000012e mbedtls_mpi_cmp_abs
00008b20 g     F .text	00000014 _utee_storage_obj_read
00006b30 g     F .text	00000072 TEE_MACInit
000077f4 g     F .text	00000190 TEE_AsymmetricSignDigest
00011522 g     F .text	00000114 memchr
000045c8 g     F .text	00000034 TEE_UnmaskCancellation
00011aae g     F .text	0000006e TEE_GetObjectInfo
00010ac6 g     F .text	00000522 mbedtls_mpi_self_test
00008b5c g     F .text	00000014 _utee_storage_obj_seek
00006f4e g     F .text	00000196 TEE_AEUpdate
00000cc4 g     F .text	000001a4 encrypt_module_key
00011e4e g     F .text	00000060 TEE_FreeTransientObject
000087bc g     F .text	00000014 _utee_check_access_rights
0000d330 g     F .text	0000004c mbedtls_mpi_cmp_int
00008ae4 g     F .text	00000014 _utee_storage_reset_enum
00007cc4 g     F .text	00000026 rand
0000843c g     F .text	00000044 __utee_check_attr_in_annotation
000089ec g     F .text	00000018 _utee_authenc_update_payload
00005a96 g     F .text	0000006e TEE_GetOperationInfo
0000a3a0 g     F .text	0000006c TEE_BigIntMod
0000f19c g     F .text	0000011a mbedtls_mpi_mod_int
0000c8d0 g     F .text	000000ca mbedtls_mpi_read_binary_le
0000a234 g     F .text	0000016c TEE_BigIntDiv
00008934 g     F .text	00000014 _utee_cryp_obj_alloc
000213d8 g       .bss	00000000 __ftrace_buf_start
0000bbf4 g     F .text	000000d8 mbedtls_mpi_copy
00007cea g     F .text	000005ae TEE_IsAlgorithmSupported
00001fec g     F .text	0000001c malloc_reset_stats
00002eee g     F .text	00000034 __vsprintf
00008820 g     F .text	00000014 _utee_set_ta_time
00008790 g     F .text	00000018 _utee_invoke_ta_command
00011bb4 g     F .text	0000004c TEE_RestrictObjectUsage1
000025e6 g     F .text	0000004e realloc
0000bccc g     F .text	00000042 mbedtls_mpi_swap
00011048 g     F .text	00000074 mempool_alloc_pool
0000a134 g     F .text	000000e0 TEE_BigIntMul
00005cd0 g     F .text	00000080 TEE_ResetOperation
0000cc14 g     F .text	00000182 mbedtls_mpi_shift_l
0000d02e g     F .text	00000172 mbedtls_mpi_cmp_mpi
000046fc g     F .text	00000026 TEE_MemFill
0000293e g     F .text	0000002a malloc_add_pool
00006ba2 g     F .text	00000082 TEE_MACUpdate
00002a0c g     F .text	00000024 trace_get_level
0000d37c g     F .text	0000018c mbedtls_mpi_add_abs
00011b68 g     F .text	0000004c TEE_RestrictObjectUsage
0000b1f2 g     F .text	00000026 TEE_BigIntFMMSizeInU32
0000b1b8 g     F .text	0000001e TEE_BigIntInitFMM
00011db2 g     F .text	00000032 TEE_CloseObject
000088b4 g     F .text	00000014 _utee_cipher_init
0000957c g     F .text	00000076 __utee_entry
00012bf2 g       .text	00000000 __text_end
0000a5e4 g     F .text	000000c8 TEE_BigIntRelativePrime
0000f0fe g     F .text	0000009e mbedtls_mpi_mod_mpi
000000e4 g     F .text	00000088 connections_get
000088f8 g     F .text	00000014 _utee_cryp_obj_get_info
00001d50 g     F .text	000000fc bpool
00008834 g     F .text	00000018 _utee_cryp_state_alloc
00004594 g     F .text	00000034 TEE_GetCancellationFlag
0000fbfc g     F .text	000001ec mbedtls_mpi_gcd
0000480a g     F .text	00000046 TEE_SetTAPersistentTime
0000ca5a g     F .text	000000d6 mbedtls_mpi_write_binary_le
000113d6 g     F .text	0000011c memset
00004786 g     F .text	00000084 TEE_GetTAPersistentTime
00002df8 g     F .text	0000001e dhex_dump
000123a4 g     F .text	000000d8 TEE_CreatePersistentObject
000045fc g     F .text	00000034 TEE_MaskCancellation
00006ed4 g     F .text	0000007a TEE_AEUpdateAAD
00000ab4 g     F .text	00000210 encrypt_using_public_key
00012836 g     F .text	0000006c TEE_TruncateObjectData
00008920 g     F .text	00000014 _utee_cryp_obj_get_attr
00011b1c g     F .text	0000004c TEE_GetObjectInfo1
000088e0 g     F .text	00000018 _utee_cipher_final
000029c0 g     F .text	0000004c trace_set_level
00011cc0 g     F .text	000000f2 TEE_GetObjectValueAttribute
00005d50 g     F .text	0000014a TEE_SetOperationKey
00008860 g     F .text	00000014 _utee_cryp_state_free
00008764 g     F .text	00000018 _utee_open_ta_session
00009a04 g     F .text	000000d4 TEE_BigIntConvertToS32
0000a050 g     F .text	00000034 TEE_BigIntSub
000112d0 g     F .text	00000014 tahead_get_trace_level
00008af8 g     F .text	00000014 _utee_storage_start_enum
000128a2 g     F .text	000000f4 TEE_SeekObjectData
000085a4 g     F .text	00000098 tee_map_zi
0000f454 g     F .text	00000046 mbedtls_mpi_montred
0000689c g     F .text	00000294 TEE_CipherDoFinal
00009984 g     F .text	00000080 TEE_BigIntConvertFromS32
0000d804 g     F .text	00000050 mbedtls_mpi_add_int
00008a04 g     F .text	00000018 _utee_authenc_enc_final
00002968 g     F .text	0000002c malloc_buffer_is_within_alloced
00008948 g     F .text	00000014 _utee_cryp_obj_close
0000b1d6 g     F .text	0000001c TEE_BigIntInitFMMContext
000087e4 g     F .text	00000014 _utee_mask_cancellation
00008aa8 g     F .text	00000014 _utee_storage_obj_rename
000127b8 g     F .text	0000007e TEE_WriteObjectData
000125f0 g     F .text	00000032 TEE_ResetPersistentObjectEnumerator
0000a214 g     F .text	00000020 TEE_BigIntSquare
00008b34 g     F .text	00000014 _utee_storage_obj_write
000013a0 g     F .text	00000034 TA_CreateEntryPoint
000015d0 g     F .text	00000004 __ta_entry
000089d8 g     F .text	00000014 _utee_authenc_update_aad
0000f2b6 g     F .text	0000006e mbedtls_mpi_montg_init
00002e18 g     F .text	00000036 snprintk
00009d6a g     F .text	00000038 TEE_BigIntGetBitCount
00008984 g     F .text	00000014 _utee_cryp_obj_copy
0000a47c g     F .text	00000038 TEE_BigIntMulMod
0000fe94 g     F .text	000004cc mbedtls_mpi_inv_mod
00007af0 g     F .text	000001a8 TEE_DeriveKey
0001e394 g     O .bss	00000020 ta_params
0000ea66 g     F .text	00000646 mbedtls_mpi_div_mpi
0000c25e g     F .text	00000024 mbedtls_mpi_size
00001650 g     F .text	00000270 bget
00011de4 g     F .text	0000006a TEE_AllocateTransientObject
000087f8 g     F .text	00000014 _utee_wait
0000c050 g     F .text	000000ce mbedtls_mpi_set_bit
00004904 g     F .text	0000001a TEE_Free
0001078a g     F .text	00000028 mbedtls_mpi_is_prime
00000020 g     F .text	00000028 malloc_aligned
00004966 g     F .text	00000024 TEE_CacheInvalidate
00003e4c g     F .text	00000014 _assert_break
0000a40c g     F .text	00000038 TEE_BigIntAddMod
0000880c g     F .text	00000014 _utee_get_time
00004c70 g     F .text	00000ddc TEE_AllocateOperation
00008970 g     F .text	00000014 _utee_cryp_obj_populate
00007c98 g     F .text	0000002c TEE_GenerateRandom
000046d8 g     F .text	00000024 TEE_MemCompare
000088c8 g     F .text	00000018 _utee_cipher_update
00002e7c g     F .text	00000072 __vsnprintf
0001e3b4 g     O .bss	0000000c __elf_phdr_info
000125be g     F .text	00000032 TEE_FreePersistentObjectEnumerator
00004350 g     F .text	000000ee TEE_OpenTASession
00003e60 g     F .text	00000024 trace_ext_puts
00016374 g     O .bss	00000010 module_key
00003e84 g     F .text	00000014 trace_ext_get_thread_id
0001247c g     F .text	00000032 TEE_CloseAndDeletePersistentObject
00008998 g     F .text	00000014 _utee_cryp_derive_key
0000b90c g     F .text	0000008c mbedtls_mpi_free
0000895c g     F .text	00000014 _utee_cryp_obj_reset
0000491e g     F .text	00000024 TEE_CacheClean
00008750 g     F .text	00000014 _utee_get_property_name_to_index
0001632c g     O .bss	00000041 private_key
0000be22 g     F .text	00000172 mbedtls_mpi_safe_cond_swap
000089c0 g     F .text	00000018 _utee_authenc_init
00012130 g     F .text	000000b8 TEE_CopyObjectAttributes1
00011636 g     F .text	0000008a strlen
0000ae9c g     F .text	00000298 TEE_BigIntComputeExtendedGcd
00011502 g     F .text	00000010 __aeabi_unwind_cpp_pr1
00008abc g     F .text	00000014 _utee_storage_alloc_enum
00004722 g     F .text	0000002c TEE_GetSystemTime
00008a4c g     F .text	00000018 _utee_asymm_verify
00000000 g     O .ta_head	00000020 ta_head
00001a18 g     F .text	00000338 brel
0000d5d0 g     F .text	000000dc mbedtls_mpi_sub_abs
0000fde8 g     F .text	000000ac mbedtls_mpi_fill_random
0001621c g     O .data	00000041 modulus
00004672 g     F .text	00000026 TEE_SetInstanceData
000087a8 g     F .text	00000014 _utee_get_cancellation_flag
00003dd4 g     F .text	00000018 __aeabi_ldivmod
0000c5f0 g     F .text	000001f8 mbedtls_mpi_write_string
0001267c g     F .text	000000b6 TEE_GetNextPersistentObject
0000443e g     F .text	00000030 TEE_CloseTASession
00007984 g     F .text	0000016c TEE_AsymmetricVerifyDigest
00008a7c g     F .text	00000018 _utee_storage_obj_create
0000265a g     F .text	0000001e free
00001e4c g     F .text	000000a8 bstats
00006c24 g     F .text	000000e8 TEE_MACComputeFinal
000213d0 g     O .bss	00000004 mbedtls_mpi_mempool
0000889c g     F .text	00000018 _utee_hash_final



Disassembly of section .text:

00000020 <malloc_aligned>:
malloc_aligned():
/home/sepideh/Desktop/reactive-tools/examples/trustzone/ta1/ta1.c:31
      20:	e96d 7e02 	strd	r7, lr, [sp, #-8]!
      24:	b082      	sub	sp, #8
      26:	af00      	add	r7, sp, #0
      28:	6078      	str	r0, [r7, #4]
/home/sepideh/Desktop/reactive-tools/examples/trustzone/ta1/ta1.c:32
      2a:	687b      	ldr	r3, [r7, #4]
      2c:	f103 0301 	add.w	r3, r3, #1
      30:	f023 0301 	bic.w	r3, r3, #1
      34:	607b      	str	r3, [r7, #4]
/home/sepideh/Desktop/reactive-tools/examples/trustzone/ta1/ta1.c:34
      36:	6878      	ldr	r0, [r7, #4]
      38:	f002 fa46 	bl	24c8 <malloc>
      3c:	4603      	mov	r3, r0
/home/sepideh/Desktop/reactive-tools/examples/trustzone/ta1/ta1.c:35
      3e:	4618      	mov	r0, r3
      40:	f107 0708 	add.w	r7, r7, #8
      44:	46bd      	mov	sp, r7
      46:	bd80      	pop	{r7, pc}

00000048 <connections_add>:
connections_add():
/home/sepideh/Desktop/reactive-tools/examples/trustzone/ta1/ta1.c:56
      48:	e96d 7e02 	strd	r7, lr, [sp, #-8]!
      4c:	b084      	sub	sp, #16
      4e:	af00      	add	r7, sp, #0
      50:	6078      	str	r0, [r7, #4]
/home/sepideh/Desktop/reactive-tools/examples/trustzone/ta1/ta1.c:57
      52:	f04f 001c 	mov.w	r0, #28
      56:	f7ff ffe3 	bl	20 <malloc_aligned>
      5a:	60b8      	str	r0, [r7, #8]
/home/sepideh/Desktop/reactive-tools/examples/trustzone/ta1/ta1.c:59
      5c:	68bb      	ldr	r3, [r7, #8]
      5e:	2b00      	cmp	r3, #0
      60:	d102      	bne.n	68 <connections_add+0x20>
/home/sepideh/Desktop/reactive-tools/examples/trustzone/ta1/ta1.c:60
      62:	f04f 0300 	mov.w	r3, #0
      66:	e030      	b.n	ca <connections_add+0x82>
/home/sepideh/Desktop/reactive-tools/examples/trustzone/ta1/ta1.c:62
      68:	4b1a      	ldr	r3, [pc, #104]	; (d4 <connections_add+0x8c>)
      6a:	447b      	add	r3, pc
      6c:	4618      	mov	r0, r3
      6e:	f003 ff47 	bl	3f00 <puts>
/home/sepideh/Desktop/reactive-tools/examples/trustzone/ta1/ta1.c:63
      72:	f04f 0300 	mov.w	r3, #0
      76:	60fb      	str	r3, [r7, #12]
      78:	e00f      	b.n	9a <connections_add+0x52>
/home/sepideh/Desktop/reactive-tools/examples/trustzone/ta1/ta1.c:64 (discriminator 3)
      7a:	687a      	ldr	r2, [r7, #4]
      7c:	68fb      	ldr	r3, [r7, #12]
      7e:	4413      	add	r3, r2
      80:	f103 0306 	add.w	r3, r3, #6
      84:	781b      	ldrb	r3, [r3, #0]
      86:	4619      	mov	r1, r3
      88:	4b13      	ldr	r3, [pc, #76]	; (d8 <connections_add+0x90>)
      8a:	447b      	add	r3, pc
      8c:	4618      	mov	r0, r3
      8e:	f003 ff03 	bl	3e98 <printf>
/home/sepideh/Desktop/reactive-tools/examples/trustzone/ta1/ta1.c:63 (discriminator 3)
      92:	68fb      	ldr	r3, [r7, #12]
      94:	f103 0301 	add.w	r3, r3, #1
      98:	60fb      	str	r3, [r7, #12]
/home/sepideh/Desktop/reactive-tools/examples/trustzone/ta1/ta1.c:63 (discriminator 1)
      9a:	68fb      	ldr	r3, [r7, #12]
      9c:	2b0f      	cmp	r3, #15
      9e:	ddec      	ble.n	7a <connections_add+0x32>
/home/sepideh/Desktop/reactive-tools/examples/trustzone/ta1/ta1.c:67
      a0:	68ba      	ldr	r2, [r7, #8]
      a2:	687b      	ldr	r3, [r7, #4]
      a4:	4610      	mov	r0, r2
      a6:	4619      	mov	r1, r3
      a8:	f04f 0316 	mov.w	r3, #22
      ac:	461a      	mov	r2, r3
      ae:	f011 f919 	bl	112e4 <memcpy>
/home/sepideh/Desktop/reactive-tools/examples/trustzone/ta1/ta1.c:68
      b2:	4b0a      	ldr	r3, [pc, #40]	; (dc <connections_add+0x94>)
      b4:	447b      	add	r3, pc
      b6:	681a      	ldr	r2, [r3, #0]
      b8:	68bb      	ldr	r3, [r7, #8]
      ba:	619a      	str	r2, [r3, #24]
/home/sepideh/Desktop/reactive-tools/examples/trustzone/ta1/ta1.c:69
      bc:	4b08      	ldr	r3, [pc, #32]	; (e0 <connections_add+0x98>)
      be:	447b      	add	r3, pc
      c0:	461a      	mov	r2, r3
      c2:	68bb      	ldr	r3, [r7, #8]
      c4:	6013      	str	r3, [r2, #0]
/home/sepideh/Desktop/reactive-tools/examples/trustzone/ta1/ta1.c:70
      c6:	f04f 0301 	mov.w	r3, #1
/home/sepideh/Desktop/reactive-tools/examples/trustzone/ta1/ta1.c:71
      ca:	4618      	mov	r0, r3
      cc:	f107 0710 	add.w	r7, r7, #16
      d0:	46bd      	mov	sp, r7
      d2:	bd80      	pop	{r7, pc}
      d4:	00012b86 	.word	0x00012b86
      d8:	00012b8e 	.word	0x00012b8e
      dc:	000162cc 	.word	0x000162cc
      e0:	000162c2 	.word	0x000162c2

000000e4 <connections_get>:
connections_get():
/home/sepideh/Desktop/reactive-tools/examples/trustzone/ta1/ta1.c:74
      e4:	e96d 7e02 	strd	r7, lr, [sp, #-8]!
      e8:	b086      	sub	sp, #24
      ea:	af00      	add	r7, sp, #0
      ec:	4603      	mov	r3, r0
      ee:	80fb      	strh	r3, [r7, #6]
/home/sepideh/Desktop/reactive-tools/examples/trustzone/ta1/ta1.c:75
      f0:	4b1b      	ldr	r3, [pc, #108]	; (160 <connections_get+0x7c>)
      f2:	447b      	add	r3, pc
      f4:	4618      	mov	r0, r3
      f6:	f003 ff03 	bl	3f00 <puts>
/home/sepideh/Desktop/reactive-tools/examples/trustzone/ta1/ta1.c:76
      fa:	4b1a      	ldr	r3, [pc, #104]	; (164 <connections_get+0x80>)
      fc:	447b      	add	r3, pc
      fe:	681b      	ldr	r3, [r3, #0]
     100:	617b      	str	r3, [r7, #20]
/home/sepideh/Desktop/reactive-tools/examples/trustzone/ta1/ta1.c:78
     102:	e022      	b.n	14a <connections_get+0x66>
/home/sepideh/Desktop/reactive-tools/examples/trustzone/ta1/ta1.c:79
     104:	697b      	ldr	r3, [r7, #20]
     106:	60fb      	str	r3, [r7, #12]
/home/sepideh/Desktop/reactive-tools/examples/trustzone/ta1/ta1.c:81
     108:	68fb      	ldr	r3, [r7, #12]
     10a:	881b      	ldrh	r3, [r3, #0]
     10c:	88fa      	ldrh	r2, [r7, #6]
     10e:	429a      	cmp	r2, r3
     110:	d118      	bne.n	144 <connections_get+0x60>
/home/sepideh/Desktop/reactive-tools/examples/trustzone/ta1/ta1.c:82
     112:	f04f 0300 	mov.w	r3, #0
     116:	613b      	str	r3, [r7, #16]
     118:	e00f      	b.n	13a <connections_get+0x56>
/home/sepideh/Desktop/reactive-tools/examples/trustzone/ta1/ta1.c:83 (discriminator 3)
     11a:	68fa      	ldr	r2, [r7, #12]
     11c:	693b      	ldr	r3, [r7, #16]
     11e:	4413      	add	r3, r2
     120:	f103 0306 	add.w	r3, r3, #6
     124:	781b      	ldrb	r3, [r3, #0]
     126:	4619      	mov	r1, r3
     128:	4b0f      	ldr	r3, [pc, #60]	; (168 <connections_get+0x84>)
     12a:	447b      	add	r3, pc
     12c:	4618      	mov	r0, r3
     12e:	f003 feb3 	bl	3e98 <printf>
/home/sepideh/Desktop/reactive-tools/examples/trustzone/ta1/ta1.c:82 (discriminator 3)
     132:	693b      	ldr	r3, [r7, #16]
     134:	f103 0301 	add.w	r3, r3, #1
     138:	613b      	str	r3, [r7, #16]
/home/sepideh/Desktop/reactive-tools/examples/trustzone/ta1/ta1.c:82 (discriminator 1)
     13a:	693b      	ldr	r3, [r7, #16]
     13c:	2b0f      	cmp	r3, #15
     13e:	ddec      	ble.n	11a <connections_get+0x36>
/home/sepideh/Desktop/reactive-tools/examples/trustzone/ta1/ta1.c:84
     140:	68fb      	ldr	r3, [r7, #12]
     142:	e007      	b.n	154 <connections_get+0x70>
/home/sepideh/Desktop/reactive-tools/examples/trustzone/ta1/ta1.c:87
     144:	697b      	ldr	r3, [r7, #20]
     146:	699b      	ldr	r3, [r3, #24]
     148:	617b      	str	r3, [r7, #20]
/home/sepideh/Desktop/reactive-tools/examples/trustzone/ta1/ta1.c:78
     14a:	697b      	ldr	r3, [r7, #20]
     14c:	2b00      	cmp	r3, #0
     14e:	d1d9      	bne.n	104 <connections_get+0x20>
/home/sepideh/Desktop/reactive-tools/examples/trustzone/ta1/ta1.c:90
     150:	f04f 0300 	mov.w	r3, #0
/home/sepideh/Desktop/reactive-tools/examples/trustzone/ta1/ta1.c:91
     154:	4618      	mov	r0, r3
     156:	f107 0718 	add.w	r7, r7, #24
     15a:	46bd      	mov	sp, r7
     15c:	bd80      	pop	{r7, pc}
     15e:	bf00      	nop
     160:	00012b2e 	.word	0x00012b2e
     164:	00016284 	.word	0x00016284
     168:	00012aee 	.word	0x00012aee

0000016c <find_connections>:
find_connections():
/home/sepideh/Desktop/reactive-tools/examples/trustzone/ta1/ta1.c:94
     16c:	e96d 7e02 	strd	r7, lr, [sp, #-8]!
     170:	b086      	sub	sp, #24
     172:	af00      	add	r7, sp, #0
     174:	4603      	mov	r3, r0
     176:	60b9      	str	r1, [r7, #8]
     178:	607a      	str	r2, [r7, #4]
     17a:	81fb      	strh	r3, [r7, #14]
/home/sepideh/Desktop/reactive-tools/examples/trustzone/ta1/ta1.c:95
     17c:	4b1d      	ldr	r3, [pc, #116]	; (1f4 <find_connections+0x88>)
     17e:	447b      	add	r3, pc
     180:	4618      	mov	r0, r3
     182:	f003 fe89 	bl	3e98 <printf>
/home/sepideh/Desktop/reactive-tools/examples/trustzone/ta1/ta1.c:96
     186:	4b1c      	ldr	r3, [pc, #112]	; (1f8 <find_connections+0x8c>)
     188:	447b      	add	r3, pc
     18a:	681b      	ldr	r3, [r3, #0]
     18c:	617b      	str	r3, [r7, #20]
/home/sepideh/Desktop/reactive-tools/examples/trustzone/ta1/ta1.c:98
     18e:	e027      	b.n	1e0 <find_connections+0x74>
/home/sepideh/Desktop/reactive-tools/examples/trustzone/ta1/ta1.c:99
     190:	697b      	ldr	r3, [r7, #20]
     192:	613b      	str	r3, [r7, #16]
/home/sepideh/Desktop/reactive-tools/examples/trustzone/ta1/ta1.c:101
     194:	693b      	ldr	r3, [r7, #16]
     196:	885b      	ldrh	r3, [r3, #2]
     198:	89fa      	ldrh	r2, [r7, #14]
     19a:	429a      	cmp	r2, r3
     19c:	d11d      	bne.n	1da <find_connections+0x6e>
/home/sepideh/Desktop/reactive-tools/examples/trustzone/ta1/ta1.c:102
     19e:	693b      	ldr	r3, [r7, #16]
     1a0:	8819      	ldrh	r1, [r3, #0]
     1a2:	687b      	ldr	r3, [r7, #4]
     1a4:	781b      	ldrb	r3, [r3, #0]
     1a6:	ea4f 0383 	mov.w	r3, r3, lsl #2
     1aa:	68ba      	ldr	r2, [r7, #8]
     1ac:	4413      	add	r3, r2
     1ae:	460a      	mov	r2, r1
     1b0:	601a      	str	r2, [r3, #0]
/home/sepideh/Desktop/reactive-tools/examples/trustzone/ta1/ta1.c:103
     1b2:	687b      	ldr	r3, [r7, #4]
     1b4:	781b      	ldrb	r3, [r3, #0]
     1b6:	ea4f 0383 	mov.w	r3, r3, lsl #2
     1ba:	68ba      	ldr	r2, [r7, #8]
     1bc:	4413      	add	r3, r2
     1be:	681b      	ldr	r3, [r3, #0]
     1c0:	4619      	mov	r1, r3
     1c2:	4b0e      	ldr	r3, [pc, #56]	; (1fc <find_connections+0x90>)
     1c4:	447b      	add	r3, pc
     1c6:	4618      	mov	r0, r3
     1c8:	f003 fe66 	bl	3e98 <printf>
/home/sepideh/Desktop/reactive-tools/examples/trustzone/ta1/ta1.c:104
     1cc:	687b      	ldr	r3, [r7, #4]
     1ce:	781b      	ldrb	r3, [r3, #0]
     1d0:	f103 0301 	add.w	r3, r3, #1
     1d4:	b2da      	uxtb	r2, r3
     1d6:	687b      	ldr	r3, [r7, #4]
     1d8:	701a      	strb	r2, [r3, #0]
/home/sepideh/Desktop/reactive-tools/examples/trustzone/ta1/ta1.c:107
     1da:	697b      	ldr	r3, [r7, #20]
     1dc:	699b      	ldr	r3, [r3, #24]
     1de:	617b      	str	r3, [r7, #20]
/home/sepideh/Desktop/reactive-tools/examples/trustzone/ta1/ta1.c:98
     1e0:	697b      	ldr	r3, [r7, #20]
     1e2:	2b00      	cmp	r3, #0
     1e4:	d1d4      	bne.n	190 <find_connections+0x24>
/home/sepideh/Desktop/reactive-tools/examples/trustzone/ta1/ta1.c:110
     1e6:	bf00      	nop
     1e8:	bf00      	nop
     1ea:	f107 0718 	add.w	r7, r7, #24
     1ee:	46bd      	mov	sp, r7
     1f0:	bd80      	pop	{r7, pc}
     1f2:	bf00      	nop
     1f4:	00012ad2 	.word	0x00012ad2
     1f8:	000161f8 	.word	0x000161f8
     1fc:	00012ac4 	.word	0x00012ac4

00000200 <ta2tee_algo_id>:
ta2tee_algo_id():
/home/sepideh/Desktop/reactive-tools/examples/trustzone/ta1/ta1.c:126
     200:	e96d 7e02 	strd	r7, lr, [sp, #-8]!
     204:	b084      	sub	sp, #16
     206:	af02      	add	r7, sp, #8
     208:	6078      	str	r0, [r7, #4]
     20a:	6039      	str	r1, [r7, #0]
/home/sepideh/Desktop/reactive-tools/examples/trustzone/ta1/ta1.c:127
     20c:	687b      	ldr	r3, [r7, #4]
     20e:	2b02      	cmp	r3, #2
     210:	d01b      	beq.n	24a <ta2tee_algo_id+0x4a>
     212:	687b      	ldr	r3, [r7, #4]
     214:	2b02      	cmp	r3, #2
     216:	d821      	bhi.n	25c <ta2tee_algo_id+0x5c>
     218:	687b      	ldr	r3, [r7, #4]
     21a:	2b00      	cmp	r3, #0
     21c:	d003      	beq.n	226 <ta2tee_algo_id+0x26>
     21e:	687b      	ldr	r3, [r7, #4]
     220:	2b01      	cmp	r3, #1
     222:	d009      	beq.n	238 <ta2tee_algo_id+0x38>
     224:	e01a      	b.n	25c <ta2tee_algo_id+0x5c>
/home/sepideh/Desktop/reactive-tools/examples/trustzone/ta1/ta1.c:129
     226:	683a      	ldr	r2, [r7, #0]
     228:	f04f 0310 	mov.w	r3, #16
     22c:	f2c1 0300 	movt	r3, #4096	; 0x1000
     230:	6013      	str	r3, [r2, #0]
/home/sepideh/Desktop/reactive-tools/examples/trustzone/ta1/ta1.c:130
     232:	f04f 0300 	mov.w	r3, #0
     236:	e024      	b.n	282 <ta2tee_algo_id+0x82>
/home/sepideh/Desktop/reactive-tools/examples/trustzone/ta1/ta1.c:132
     238:	683a      	ldr	r2, [r7, #0]
     23a:	f44f 7388 	mov.w	r3, #272	; 0x110
     23e:	f2c1 0300 	movt	r3, #4096	; 0x1000
     242:	6013      	str	r3, [r2, #0]
/home/sepideh/Desktop/reactive-tools/examples/trustzone/ta1/ta1.c:133
     244:	f04f 0300 	mov.w	r3, #0
     248:	e01b      	b.n	282 <ta2tee_algo_id+0x82>
/home/sepideh/Desktop/reactive-tools/examples/trustzone/ta1/ta1.c:135
     24a:	683a      	ldr	r2, [r7, #0]
     24c:	f44f 6301 	mov.w	r3, #2064	; 0x810
     250:	f2c4 0300 	movt	r3, #16384	; 0x4000
     254:	6013      	str	r3, [r2, #0]
/home/sepideh/Desktop/reactive-tools/examples/trustzone/ta1/ta1.c:136
     256:	f04f 0300 	mov.w	r3, #0
     25a:	e012      	b.n	282 <ta2tee_algo_id+0x82>
/home/sepideh/Desktop/reactive-tools/examples/trustzone/ta1/ta1.c:138
     25c:	687b      	ldr	r3, [r7, #4]
     25e:	9301      	str	r3, [sp, #4]
     260:	4b0a      	ldr	r3, [pc, #40]	; (28c <ta2tee_algo_id+0x8c>)
     262:	447b      	add	r3, pc
     264:	9300      	str	r3, [sp, #0]
     266:	f04f 0301 	mov.w	r3, #1
     26a:	f04f 0201 	mov.w	r2, #1
     26e:	f04f 018a 	mov.w	r1, #138	; 0x8a
     272:	4807      	ldr	r0, [pc, #28]	; (290 <ta2tee_algo_id+0x90>)
     274:	4478      	add	r0, pc
     276:	f002 fc44 	bl	2b02 <trace_printf>
/home/sepideh/Desktop/reactive-tools/examples/trustzone/ta1/ta1.c:139
     27a:	f04f 0306 	mov.w	r3, #6
     27e:	f6cf 73ff 	movt	r3, #65535	; 0xffff
/home/sepideh/Desktop/reactive-tools/examples/trustzone/ta1/ta1.c:141
     282:	4618      	mov	r0, r3
     284:	f107 0708 	add.w	r7, r7, #8
     288:	46bd      	mov	sp, r7
     28a:	bd80      	pop	{r7, pc}
     28c:	00012a32 	.word	0x00012a32
     290:	00013050 	.word	0x00013050

00000294 <ta2tee_key_size>:
ta2tee_key_size():
/home/sepideh/Desktop/reactive-tools/examples/trustzone/ta1/ta1.c:143
     294:	e96d 7e02 	strd	r7, lr, [sp, #-8]!
     298:	b084      	sub	sp, #16
     29a:	af02      	add	r7, sp, #8
     29c:	6078      	str	r0, [r7, #4]
     29e:	6039      	str	r1, [r7, #0]
/home/sepideh/Desktop/reactive-tools/examples/trustzone/ta1/ta1.c:144
     2a0:	687b      	ldr	r3, [r7, #4]
     2a2:	2b10      	cmp	r3, #16
     2a4:	d105      	bne.n	2b2 <ta2tee_key_size+0x1e>
/home/sepideh/Desktop/reactive-tools/examples/trustzone/ta1/ta1.c:146
     2a6:	683b      	ldr	r3, [r7, #0]
     2a8:	687a      	ldr	r2, [r7, #4]
     2aa:	601a      	str	r2, [r3, #0]
/home/sepideh/Desktop/reactive-tools/examples/trustzone/ta1/ta1.c:147
     2ac:	f04f 0300 	mov.w	r3, #0
     2b0:	e012      	b.n	2d8 <ta2tee_key_size+0x44>
/home/sepideh/Desktop/reactive-tools/examples/trustzone/ta1/ta1.c:149
     2b2:	687b      	ldr	r3, [r7, #4]
     2b4:	9301      	str	r3, [sp, #4]
     2b6:	4b0b      	ldr	r3, [pc, #44]	; (2e4 <ta2tee_key_size+0x50>)
     2b8:	447b      	add	r3, pc
     2ba:	9300      	str	r3, [sp, #0]
     2bc:	f04f 0301 	mov.w	r3, #1
     2c0:	f04f 0201 	mov.w	r2, #1
     2c4:	f04f 0195 	mov.w	r1, #149	; 0x95
     2c8:	4807      	ldr	r0, [pc, #28]	; (2e8 <ta2tee_key_size+0x54>)
     2ca:	4478      	add	r0, pc
     2cc:	f002 fc19 	bl	2b02 <trace_printf>
/home/sepideh/Desktop/reactive-tools/examples/trustzone/ta1/ta1.c:150
     2d0:	f04f 0306 	mov.w	r3, #6
     2d4:	f6cf 73ff 	movt	r3, #65535	; 0xffff
/home/sepideh/Desktop/reactive-tools/examples/trustzone/ta1/ta1.c:152
     2d8:	4618      	mov	r0, r3
     2da:	f107 0708 	add.w	r7, r7, #8
     2de:	46bd      	mov	sp, r7
     2e0:	bd80      	pop	{r7, pc}
     2e2:	bf00      	nop
     2e4:	000129ec 	.word	0x000129ec
     2e8:	0001300a 	.word	0x0001300a

000002ec <ta2tee_mode_id>:
ta2tee_mode_id():
/home/sepideh/Desktop/reactive-tools/examples/trustzone/ta1/ta1.c:154
     2ec:	e96d 7e02 	strd	r7, lr, [sp, #-8]!
     2f0:	b084      	sub	sp, #16
     2f2:	af02      	add	r7, sp, #8
     2f4:	6078      	str	r0, [r7, #4]
     2f6:	6039      	str	r1, [r7, #0]
/home/sepideh/Desktop/reactive-tools/examples/trustzone/ta1/ta1.c:155
     2f8:	687b      	ldr	r3, [r7, #4]
     2fa:	2b00      	cmp	r3, #0
     2fc:	d009      	beq.n	312 <ta2tee_mode_id+0x26>
     2fe:	687b      	ldr	r3, [r7, #4]
     300:	2b01      	cmp	r3, #1
     302:	d10d      	bne.n	320 <ta2tee_mode_id+0x34>
/home/sepideh/Desktop/reactive-tools/examples/trustzone/ta1/ta1.c:157
     304:	683b      	ldr	r3, [r7, #0]
     306:	f04f 0200 	mov.w	r2, #0
     30a:	601a      	str	r2, [r3, #0]
/home/sepideh/Desktop/reactive-tools/examples/trustzone/ta1/ta1.c:158
     30c:	f04f 0300 	mov.w	r3, #0
     310:	e019      	b.n	346 <ta2tee_mode_id+0x5a>
/home/sepideh/Desktop/reactive-tools/examples/trustzone/ta1/ta1.c:160
     312:	683b      	ldr	r3, [r7, #0]
     314:	f04f 0201 	mov.w	r2, #1
     318:	601a      	str	r2, [r3, #0]
/home/sepideh/Desktop/reactive-tools/examples/trustzone/ta1/ta1.c:161
     31a:	f04f 0300 	mov.w	r3, #0
     31e:	e012      	b.n	346 <ta2tee_mode_id+0x5a>
/home/sepideh/Desktop/reactive-tools/examples/trustzone/ta1/ta1.c:163
     320:	687b      	ldr	r3, [r7, #4]
     322:	9301      	str	r3, [sp, #4]
     324:	4b0a      	ldr	r3, [pc, #40]	; (350 <ta2tee_mode_id+0x64>)
     326:	447b      	add	r3, pc
     328:	9300      	str	r3, [sp, #0]
     32a:	f04f 0301 	mov.w	r3, #1
     32e:	f04f 0201 	mov.w	r2, #1
     332:	f04f 01a3 	mov.w	r1, #163	; 0xa3
     336:	4807      	ldr	r0, [pc, #28]	; (354 <ta2tee_mode_id+0x68>)
     338:	4478      	add	r0, pc
     33a:	f002 fbe2 	bl	2b02 <trace_printf>
/home/sepideh/Desktop/reactive-tools/examples/trustzone/ta1/ta1.c:164
     33e:	f04f 0306 	mov.w	r3, #6
     342:	f6cf 73ff 	movt	r3, #65535	; 0xffff
/home/sepideh/Desktop/reactive-tools/examples/trustzone/ta1/ta1.c:166
     346:	4618      	mov	r0, r3
     348:	f107 0708 	add.w	r7, r7, #8
     34c:	46bd      	mov	sp, r7
     34e:	bd80      	pop	{r7, pc}
     350:	00012992 	.word	0x00012992
     354:	00012fac 	.word	0x00012fac

00000358 <alloc_resources>:
alloc_resources():
/home/sepideh/Desktop/reactive-tools/examples/trustzone/ta1/ta1.c:169
     358:	e96d 7e02 	strd	r7, lr, [sp, #-8]!
     35c:	b08c      	sub	sp, #48	; 0x30
     35e:	af02      	add	r7, sp, #8
     360:	60f8      	str	r0, [r7, #12]
     362:	60b9      	str	r1, [r7, #8]
     364:	607a      	str	r2, [r7, #4]
     366:	603b      	str	r3, [r7, #0]
/home/sepideh/Desktop/reactive-tools/examples/trustzone/ta1/ta1.c:177
     368:	68fb      	ldr	r3, [r7, #12]
     36a:	9301      	str	r3, [sp, #4]
     36c:	4b80      	ldr	r3, [pc, #512]	; (570 <alloc_resources+0x218>)
     36e:	447b      	add	r3, pc
     370:	9300      	str	r3, [sp, #0]
     372:	f04f 0301 	mov.w	r3, #1
     376:	f04f 0203 	mov.w	r2, #3
     37a:	f04f 01b1 	mov.w	r1, #177	; 0xb1
     37e:	487d      	ldr	r0, [pc, #500]	; (574 <alloc_resources+0x21c>)
     380:	4478      	add	r0, pc
     382:	f002 fbbe 	bl	2b02 <trace_printf>
/home/sepideh/Desktop/reactive-tools/examples/trustzone/ta1/ta1.c:178
     386:	68fb      	ldr	r3, [r7, #12]
     388:	623b      	str	r3, [r7, #32]
/home/sepideh/Desktop/reactive-tools/examples/trustzone/ta1/ta1.c:180
     38a:	6a3b      	ldr	r3, [r7, #32]
     38c:	4619      	mov	r1, r3
     38e:	68b8      	ldr	r0, [r7, #8]
     390:	f7ff ff36 	bl	200 <ta2tee_algo_id>
     394:	6278      	str	r0, [r7, #36]	; 0x24
/home/sepideh/Desktop/reactive-tools/examples/trustzone/ta1/ta1.c:181
     396:	6a7b      	ldr	r3, [r7, #36]	; 0x24
     398:	2b00      	cmp	r3, #0
     39a:	d001      	beq.n	3a0 <alloc_resources+0x48>
/home/sepideh/Desktop/reactive-tools/examples/trustzone/ta1/ta1.c:182
     39c:	6a7b      	ldr	r3, [r7, #36]	; 0x24
     39e:	e0e2      	b.n	566 <alloc_resources+0x20e>
/home/sepideh/Desktop/reactive-tools/examples/trustzone/ta1/ta1.c:184
     3a0:	6a3b      	ldr	r3, [r7, #32]
     3a2:	f103 0308 	add.w	r3, r3, #8
     3a6:	4619      	mov	r1, r3
     3a8:	6878      	ldr	r0, [r7, #4]
     3aa:	f7ff ff73 	bl	294 <ta2tee_key_size>
     3ae:	6278      	str	r0, [r7, #36]	; 0x24
/home/sepideh/Desktop/reactive-tools/examples/trustzone/ta1/ta1.c:185
     3b0:	6a7b      	ldr	r3, [r7, #36]	; 0x24
     3b2:	2b00      	cmp	r3, #0
     3b4:	d001      	beq.n	3ba <alloc_resources+0x62>
/home/sepideh/Desktop/reactive-tools/examples/trustzone/ta1/ta1.c:186
     3b6:	6a7b      	ldr	r3, [r7, #36]	; 0x24
     3b8:	e0d5      	b.n	566 <alloc_resources+0x20e>
/home/sepideh/Desktop/reactive-tools/examples/trustzone/ta1/ta1.c:188
     3ba:	6a3b      	ldr	r3, [r7, #32]
     3bc:	f103 0304 	add.w	r3, r3, #4
     3c0:	4619      	mov	r1, r3
     3c2:	6838      	ldr	r0, [r7, #0]
     3c4:	f7ff ff92 	bl	2ec <ta2tee_mode_id>
     3c8:	6278      	str	r0, [r7, #36]	; 0x24
/home/sepideh/Desktop/reactive-tools/examples/trustzone/ta1/ta1.c:189
     3ca:	6a7b      	ldr	r3, [r7, #36]	; 0x24
     3cc:	2b00      	cmp	r3, #0
     3ce:	d001      	beq.n	3d4 <alloc_resources+0x7c>
/home/sepideh/Desktop/reactive-tools/examples/trustzone/ta1/ta1.c:190
     3d0:	6a7b      	ldr	r3, [r7, #36]	; 0x24
     3d2:	e0c8      	b.n	566 <alloc_resources+0x20e>
/home/sepideh/Desktop/reactive-tools/examples/trustzone/ta1/ta1.c:192
     3d4:	6a3b      	ldr	r3, [r7, #32]
     3d6:	68db      	ldr	r3, [r3, #12]
     3d8:	2b00      	cmp	r3, #0
     3da:	d004      	beq.n	3e6 <alloc_resources+0x8e>
/home/sepideh/Desktop/reactive-tools/examples/trustzone/ta1/ta1.c:193
     3dc:	6a3b      	ldr	r3, [r7, #32]
     3de:	68db      	ldr	r3, [r3, #12]
     3e0:	4618      	mov	r0, r3
     3e2:	f005 fb33 	bl	5a4c <TEE_FreeOperation>
/home/sepideh/Desktop/reactive-tools/examples/trustzone/ta1/ta1.c:196
     3e6:	6a3b      	ldr	r3, [r7, #32]
     3e8:	f103 000c 	add.w	r0, r3, #12
     3ec:	6a3b      	ldr	r3, [r7, #32]
     3ee:	6819      	ldr	r1, [r3, #0]
     3f0:	6a3b      	ldr	r3, [r7, #32]
     3f2:	685a      	ldr	r2, [r3, #4]
/home/sepideh/Desktop/reactive-tools/examples/trustzone/ta1/ta1.c:199
     3f4:	6a3b      	ldr	r3, [r7, #32]
     3f6:	689b      	ldr	r3, [r3, #8]
/home/sepideh/Desktop/reactive-tools/examples/trustzone/ta1/ta1.c:196
     3f8:	ea4f 03c3 	mov.w	r3, r3, lsl #3
     3fc:	f004 fc38 	bl	4c70 <TEE_AllocateOperation>
     400:	6278      	str	r0, [r7, #36]	; 0x24
/home/sepideh/Desktop/reactive-tools/examples/trustzone/ta1/ta1.c:200
     402:	6a7b      	ldr	r3, [r7, #36]	; 0x24
     404:	2b00      	cmp	r3, #0
     406:	d011      	beq.n	42c <alloc_resources+0xd4>
/home/sepideh/Desktop/reactive-tools/examples/trustzone/ta1/ta1.c:201
     408:	4b5b      	ldr	r3, [pc, #364]	; (578 <alloc_resources+0x220>)
     40a:	447b      	add	r3, pc
     40c:	9300      	str	r3, [sp, #0]
     40e:	f04f 0301 	mov.w	r3, #1
     412:	f04f 0201 	mov.w	r2, #1
     416:	f04f 01c9 	mov.w	r1, #201	; 0xc9
     41a:	4858      	ldr	r0, [pc, #352]	; (57c <alloc_resources+0x224>)
     41c:	4478      	add	r0, pc
     41e:	f002 fb70 	bl	2b02 <trace_printf>
/home/sepideh/Desktop/reactive-tools/examples/trustzone/ta1/ta1.c:202
     422:	6a3b      	ldr	r3, [r7, #32]
     424:	f04f 0200 	mov.w	r2, #0
     428:	60da      	str	r2, [r3, #12]
/home/sepideh/Desktop/reactive-tools/examples/trustzone/ta1/ta1.c:203
     42a:	e081      	b.n	530 <alloc_resources+0x1d8>
/home/sepideh/Desktop/reactive-tools/examples/trustzone/ta1/ta1.c:207
     42c:	6a3b      	ldr	r3, [r7, #32]
     42e:	691b      	ldr	r3, [r3, #16]
     430:	2b00      	cmp	r3, #0
     432:	d004      	beq.n	43e <alloc_resources+0xe6>
/home/sepideh/Desktop/reactive-tools/examples/trustzone/ta1/ta1.c:208
     434:	6a3b      	ldr	r3, [r7, #32]
     436:	691b      	ldr	r3, [r3, #16]
     438:	4618      	mov	r0, r3
     43a:	f011 fd08 	bl	11e4e <TEE_FreeTransientObject>
/home/sepideh/Desktop/reactive-tools/examples/trustzone/ta1/ta1.c:212
     43e:	6a3b      	ldr	r3, [r7, #32]
     440:	689b      	ldr	r3, [r3, #8]
/home/sepideh/Desktop/reactive-tools/examples/trustzone/ta1/ta1.c:211
     442:	ea4f 01c3 	mov.w	r1, r3, lsl #3
     446:	6a3b      	ldr	r3, [r7, #32]
     448:	f103 0310 	add.w	r3, r3, #16
     44c:	461a      	mov	r2, r3
     44e:	f04f 0010 	mov.w	r0, #16
     452:	f2ca 0000 	movt	r0, #40960	; 0xa000
     456:	f011 fcc5 	bl	11de4 <TEE_AllocateTransientObject>
     45a:	6278      	str	r0, [r7, #36]	; 0x24
/home/sepideh/Desktop/reactive-tools/examples/trustzone/ta1/ta1.c:214
     45c:	6a7b      	ldr	r3, [r7, #36]	; 0x24
     45e:	2b00      	cmp	r3, #0
     460:	d011      	beq.n	486 <alloc_resources+0x12e>
/home/sepideh/Desktop/reactive-tools/examples/trustzone/ta1/ta1.c:215
     462:	4b47      	ldr	r3, [pc, #284]	; (580 <alloc_resources+0x228>)
     464:	447b      	add	r3, pc
     466:	9300      	str	r3, [sp, #0]
     468:	f04f 0301 	mov.w	r3, #1
     46c:	f04f 0201 	mov.w	r2, #1
     470:	f04f 01d7 	mov.w	r1, #215	; 0xd7
     474:	4843      	ldr	r0, [pc, #268]	; (584 <alloc_resources+0x22c>)
     476:	4478      	add	r0, pc
     478:	f002 fb43 	bl	2b02 <trace_printf>
/home/sepideh/Desktop/reactive-tools/examples/trustzone/ta1/ta1.c:216
     47c:	6a3b      	ldr	r3, [r7, #32]
     47e:	f04f 0200 	mov.w	r2, #0
     482:	611a      	str	r2, [r3, #16]
/home/sepideh/Desktop/reactive-tools/examples/trustzone/ta1/ta1.c:217
     484:	e054      	b.n	530 <alloc_resources+0x1d8>
/home/sepideh/Desktop/reactive-tools/examples/trustzone/ta1/ta1.c:220
     486:	6a3b      	ldr	r3, [r7, #32]
     488:	689b      	ldr	r3, [r3, #8]
     48a:	f04f 0100 	mov.w	r1, #0
     48e:	4618      	mov	r0, r3
     490:	f004 f9f4 	bl	487c <TEE_Malloc>
     494:	61f8      	str	r0, [r7, #28]
/home/sepideh/Desktop/reactive-tools/examples/trustzone/ta1/ta1.c:221
     496:	69fb      	ldr	r3, [r7, #28]
     498:	2b00      	cmp	r3, #0
     49a:	d105      	bne.n	4a8 <alloc_resources+0x150>
/home/sepideh/Desktop/reactive-tools/examples/trustzone/ta1/ta1.c:222
     49c:	f04f 030c 	mov.w	r3, #12
     4a0:	f6cf 73ff 	movt	r3, #65535	; 0xffff
     4a4:	627b      	str	r3, [r7, #36]	; 0x24
/home/sepideh/Desktop/reactive-tools/examples/trustzone/ta1/ta1.c:223
     4a6:	e043      	b.n	530 <alloc_resources+0x1d8>
/home/sepideh/Desktop/reactive-tools/examples/trustzone/ta1/ta1.c:226
     4a8:	6a3b      	ldr	r3, [r7, #32]
     4aa:	689b      	ldr	r3, [r3, #8]
     4ac:	f107 0010 	add.w	r0, r7, #16
     4b0:	69fa      	ldr	r2, [r7, #28]
     4b2:	f04f 4140 	mov.w	r1, #3221225472	; 0xc0000000
     4b6:	f011 fdcd 	bl	12054 <TEE_InitRefAttribute>
/home/sepideh/Desktop/reactive-tools/examples/trustzone/ta1/ta1.c:228
     4ba:	6a3b      	ldr	r3, [r7, #32]
     4bc:	691b      	ldr	r3, [r3, #16]
     4be:	f107 0110 	add.w	r1, r7, #16
     4c2:	f04f 0201 	mov.w	r2, #1
     4c6:	4618      	mov	r0, r3
     4c8:	f011 fd21 	bl	11f0e <TEE_PopulateTransientObject>
     4cc:	6278      	str	r0, [r7, #36]	; 0x24
/home/sepideh/Desktop/reactive-tools/examples/trustzone/ta1/ta1.c:229
     4ce:	6a7b      	ldr	r3, [r7, #36]	; 0x24
     4d0:	2b00      	cmp	r3, #0
     4d2:	d00f      	beq.n	4f4 <alloc_resources+0x19c>
/home/sepideh/Desktop/reactive-tools/examples/trustzone/ta1/ta1.c:230
     4d4:	6a7b      	ldr	r3, [r7, #36]	; 0x24
     4d6:	9301      	str	r3, [sp, #4]
     4d8:	4b2b      	ldr	r3, [pc, #172]	; (588 <alloc_resources+0x230>)
     4da:	447b      	add	r3, pc
     4dc:	9300      	str	r3, [sp, #0]
     4de:	f04f 0301 	mov.w	r3, #1
     4e2:	f04f 0201 	mov.w	r2, #1
     4e6:	f04f 01e6 	mov.w	r1, #230	; 0xe6
     4ea:	4828      	ldr	r0, [pc, #160]	; (58c <alloc_resources+0x234>)
     4ec:	4478      	add	r0, pc
     4ee:	f002 fb08 	bl	2b02 <trace_printf>
/home/sepideh/Desktop/reactive-tools/examples/trustzone/ta1/ta1.c:231
     4f2:	e01d      	b.n	530 <alloc_resources+0x1d8>
/home/sepideh/Desktop/reactive-tools/examples/trustzone/ta1/ta1.c:234
     4f4:	6a3b      	ldr	r3, [r7, #32]
     4f6:	68da      	ldr	r2, [r3, #12]
     4f8:	6a3b      	ldr	r3, [r7, #32]
     4fa:	691b      	ldr	r3, [r3, #16]
     4fc:	4619      	mov	r1, r3
     4fe:	4610      	mov	r0, r2
     500:	f005 fc26 	bl	5d50 <TEE_SetOperationKey>
     504:	6278      	str	r0, [r7, #36]	; 0x24
/home/sepideh/Desktop/reactive-tools/examples/trustzone/ta1/ta1.c:235
     506:	6a7b      	ldr	r3, [r7, #36]	; 0x24
     508:	2b00      	cmp	r3, #0
     50a:	d00f      	beq.n	52c <alloc_resources+0x1d4>
/home/sepideh/Desktop/reactive-tools/examples/trustzone/ta1/ta1.c:236
     50c:	6a7b      	ldr	r3, [r7, #36]	; 0x24
     50e:	9301      	str	r3, [sp, #4]
     510:	4b1f      	ldr	r3, [pc, #124]	; (590 <alloc_resources+0x238>)
     512:	447b      	add	r3, pc
     514:	9300      	str	r3, [sp, #0]
     516:	f04f 0301 	mov.w	r3, #1
     51a:	f04f 0201 	mov.w	r2, #1
     51e:	f04f 01ec 	mov.w	r1, #236	; 0xec
     522:	481c      	ldr	r0, [pc, #112]	; (594 <alloc_resources+0x23c>)
     524:	4478      	add	r0, pc
     526:	f002 faec 	bl	2b02 <trace_printf>
/home/sepideh/Desktop/reactive-tools/examples/trustzone/ta1/ta1.c:237
     52a:	e001      	b.n	530 <alloc_resources+0x1d8>
/home/sepideh/Desktop/reactive-tools/examples/trustzone/ta1/ta1.c:240
     52c:	6a7b      	ldr	r3, [r7, #36]	; 0x24
     52e:	e01a      	b.n	566 <alloc_resources+0x20e>
/home/sepideh/Desktop/reactive-tools/examples/trustzone/ta1/ta1.c:243
     530:	6a3b      	ldr	r3, [r7, #32]
     532:	68db      	ldr	r3, [r3, #12]
     534:	2b00      	cmp	r3, #0
     536:	d004      	beq.n	542 <alloc_resources+0x1ea>
/home/sepideh/Desktop/reactive-tools/examples/trustzone/ta1/ta1.c:244
     538:	6a3b      	ldr	r3, [r7, #32]
     53a:	68db      	ldr	r3, [r3, #12]
     53c:	4618      	mov	r0, r3
     53e:	f005 fa85 	bl	5a4c <TEE_FreeOperation>
/home/sepideh/Desktop/reactive-tools/examples/trustzone/ta1/ta1.c:245
     542:	6a3b      	ldr	r3, [r7, #32]
     544:	f04f 0200 	mov.w	r2, #0
     548:	60da      	str	r2, [r3, #12]
/home/sepideh/Desktop/reactive-tools/examples/trustzone/ta1/ta1.c:247
     54a:	6a3b      	ldr	r3, [r7, #32]
     54c:	691b      	ldr	r3, [r3, #16]
     54e:	2b00      	cmp	r3, #0
     550:	d004      	beq.n	55c <alloc_resources+0x204>
/home/sepideh/Desktop/reactive-tools/examples/trustzone/ta1/ta1.c:248
     552:	6a3b      	ldr	r3, [r7, #32]
     554:	691b      	ldr	r3, [r3, #16]
     556:	4618      	mov	r0, r3
     558:	f011 fc79 	bl	11e4e <TEE_FreeTransientObject>
/home/sepideh/Desktop/reactive-tools/examples/trustzone/ta1/ta1.c:249
     55c:	6a3b      	ldr	r3, [r7, #32]
     55e:	f04f 0200 	mov.w	r2, #0
     562:	611a      	str	r2, [r3, #16]
/home/sepideh/Desktop/reactive-tools/examples/trustzone/ta1/ta1.c:251
     564:	6a7b      	ldr	r3, [r7, #36]	; 0x24
/home/sepideh/Desktop/reactive-tools/examples/trustzone/ta1/ta1.c:252 (discriminator 1)
     566:	4618      	mov	r0, r3
     568:	f107 0728 	add.w	r7, r7, #40	; 0x28
     56c:	46bd      	mov	sp, r7
     56e:	bd80      	pop	{r7, pc}
     570:	0001295a 	.word	0x0001295a
     574:	00012f74 	.word	0x00012f74
     578:	000128e2 	.word	0x000128e2
     57c:	00012ed8 	.word	0x00012ed8
     580:	000128a8 	.word	0x000128a8
     584:	00012e7e 	.word	0x00012e7e
     588:	00012856 	.word	0x00012856
     58c:	00012e08 	.word	0x00012e08
     590:	00012846 	.word	0x00012846
     594:	00012dd0 	.word	0x00012dd0

00000598 <set_aes_key>:
set_aes_key():
/home/sepideh/Desktop/reactive-tools/examples/trustzone/ta1/ta1.c:254
     598:	e96d 7e02 	strd	r7, lr, [sp, #-8]!
     59c:	b08e      	sub	sp, #56	; 0x38
     59e:	af04      	add	r7, sp, #16
     5a0:	60f8      	str	r0, [r7, #12]
     5a2:	60b9      	str	r1, [r7, #8]
     5a4:	607a      	str	r2, [r7, #4]
/home/sepideh/Desktop/reactive-tools/examples/trustzone/ta1/ta1.c:261
     5a6:	68fb      	ldr	r3, [r7, #12]
     5a8:	9301      	str	r3, [sp, #4]
     5aa:	4b4c      	ldr	r3, [pc, #304]	; (6dc <set_aes_key+0x144>)
     5ac:	447b      	add	r3, pc
     5ae:	9300      	str	r3, [sp, #0]
     5b0:	f04f 0301 	mov.w	r3, #1
     5b4:	f04f 0203 	mov.w	r2, #3
     5b8:	f240 1105 	movw	r1, #261	; 0x105
     5bc:	4848      	ldr	r0, [pc, #288]	; (6e0 <set_aes_key+0x148>)
     5be:	4478      	add	r0, pc
     5c0:	f002 fa9f 	bl	2b02 <trace_printf>
/home/sepideh/Desktop/reactive-tools/examples/trustzone/ta1/ta1.c:262
     5c4:	68fb      	ldr	r3, [r7, #12]
     5c6:	623b      	str	r3, [r7, #32]
/home/sepideh/Desktop/reactive-tools/examples/trustzone/ta1/ta1.c:266
     5c8:	4b46      	ldr	r3, [pc, #280]	; (6e4 <set_aes_key+0x14c>)
     5ca:	447b      	add	r3, pc
     5cc:	4618      	mov	r0, r3
     5ce:	f003 fc97 	bl	3f00 <puts>
/home/sepideh/Desktop/reactive-tools/examples/trustzone/ta1/ta1.c:267
     5d2:	f04f 0300 	mov.w	r3, #0
     5d6:	627b      	str	r3, [r7, #36]	; 0x24
     5d8:	e00d      	b.n	5f6 <set_aes_key+0x5e>
/home/sepideh/Desktop/reactive-tools/examples/trustzone/ta1/ta1.c:268 (discriminator 3)
     5da:	6a7b      	ldr	r3, [r7, #36]	; 0x24
     5dc:	68ba      	ldr	r2, [r7, #8]
     5de:	4413      	add	r3, r2
     5e0:	781b      	ldrb	r3, [r3, #0]
     5e2:	4619      	mov	r1, r3
     5e4:	4b40      	ldr	r3, [pc, #256]	; (6e8 <set_aes_key+0x150>)
     5e6:	447b      	add	r3, pc
     5e8:	4618      	mov	r0, r3
     5ea:	f003 fc55 	bl	3e98 <printf>
/home/sepideh/Desktop/reactive-tools/examples/trustzone/ta1/ta1.c:267 (discriminator 3)
     5ee:	6a7b      	ldr	r3, [r7, #36]	; 0x24
     5f0:	f103 0301 	add.w	r3, r3, #1
     5f4:	627b      	str	r3, [r7, #36]	; 0x24
/home/sepideh/Desktop/reactive-tools/examples/trustzone/ta1/ta1.c:267 (discriminator 1)
     5f6:	6a7b      	ldr	r3, [r7, #36]	; 0x24
     5f8:	2b0f      	cmp	r3, #15
     5fa:	ddee      	ble.n	5da <set_aes_key+0x42>
/home/sepideh/Desktop/reactive-tools/examples/trustzone/ta1/ta1.c:271
     5fc:	6a3b      	ldr	r3, [r7, #32]
     5fe:	689b      	ldr	r3, [r3, #8]
     600:	687a      	ldr	r2, [r7, #4]
     602:	429a      	cmp	r2, r3
     604:	d016      	beq.n	634 <set_aes_key+0x9c>
/home/sepideh/Desktop/reactive-tools/examples/trustzone/ta1/ta1.c:272
     606:	6a3b      	ldr	r3, [r7, #32]
     608:	689b      	ldr	r3, [r3, #8]
     60a:	9302      	str	r3, [sp, #8]
     60c:	687b      	ldr	r3, [r7, #4]
     60e:	9301      	str	r3, [sp, #4]
     610:	4b36      	ldr	r3, [pc, #216]	; (6ec <set_aes_key+0x154>)
     612:	447b      	add	r3, pc
     614:	9300      	str	r3, [sp, #0]
     616:	f04f 0301 	mov.w	r3, #1
     61a:	f04f 0201 	mov.w	r2, #1
     61e:	f44f 7188 	mov.w	r1, #272	; 0x110
     622:	4833      	ldr	r0, [pc, #204]	; (6f0 <set_aes_key+0x158>)
     624:	4478      	add	r0, pc
     626:	f002 fa6c 	bl	2b02 <trace_printf>
/home/sepideh/Desktop/reactive-tools/examples/trustzone/ta1/ta1.c:274
     62a:	f04f 0306 	mov.w	r3, #6
     62e:	f6cf 73ff 	movt	r3, #65535	; 0xffff
     632:	e04d      	b.n	6d0 <set_aes_key+0x138>
/home/sepideh/Desktop/reactive-tools/examples/trustzone/ta1/ta1.c:277
     634:	f107 0010 	add.w	r0, r7, #16
     638:	687b      	ldr	r3, [r7, #4]
     63a:	68ba      	ldr	r2, [r7, #8]
     63c:	f04f 4140 	mov.w	r1, #3221225472	; 0xc0000000
     640:	f011 fd08 	bl	12054 <TEE_InitRefAttribute>
/home/sepideh/Desktop/reactive-tools/examples/trustzone/ta1/ta1.c:279
     644:	6a3b      	ldr	r3, [r7, #32]
     646:	691b      	ldr	r3, [r3, #16]
     648:	4618      	mov	r0, r3
     64a:	f011 fc30 	bl	11eae <TEE_ResetTransientObject>
/home/sepideh/Desktop/reactive-tools/examples/trustzone/ta1/ta1.c:280
     64e:	6a3b      	ldr	r3, [r7, #32]
     650:	691b      	ldr	r3, [r3, #16]
     652:	f107 0110 	add.w	r1, r7, #16
     656:	f04f 0201 	mov.w	r2, #1
     65a:	4618      	mov	r0, r3
     65c:	f011 fc57 	bl	11f0e <TEE_PopulateTransientObject>
     660:	61f8      	str	r0, [r7, #28]
/home/sepideh/Desktop/reactive-tools/examples/trustzone/ta1/ta1.c:281
     662:	69fb      	ldr	r3, [r7, #28]
     664:	2b00      	cmp	r3, #0
     666:	d010      	beq.n	68a <set_aes_key+0xf2>
/home/sepideh/Desktop/reactive-tools/examples/trustzone/ta1/ta1.c:282
     668:	69fb      	ldr	r3, [r7, #28]
     66a:	9301      	str	r3, [sp, #4]
     66c:	4b21      	ldr	r3, [pc, #132]	; (6f4 <set_aes_key+0x15c>)
     66e:	447b      	add	r3, pc
     670:	9300      	str	r3, [sp, #0]
     672:	f04f 0301 	mov.w	r3, #1
     676:	f04f 0201 	mov.w	r2, #1
     67a:	f44f 718d 	mov.w	r1, #282	; 0x11a
     67e:	481e      	ldr	r0, [pc, #120]	; (6f8 <set_aes_key+0x160>)
     680:	4478      	add	r0, pc
     682:	f002 fa3e 	bl	2b02 <trace_printf>
/home/sepideh/Desktop/reactive-tools/examples/trustzone/ta1/ta1.c:283
     686:	69fb      	ldr	r3, [r7, #28]
     688:	e022      	b.n	6d0 <set_aes_key+0x138>
/home/sepideh/Desktop/reactive-tools/examples/trustzone/ta1/ta1.c:286
     68a:	6a3b      	ldr	r3, [r7, #32]
     68c:	68db      	ldr	r3, [r3, #12]
     68e:	4618      	mov	r0, r3
     690:	f005 fb1e 	bl	5cd0 <TEE_ResetOperation>
/home/sepideh/Desktop/reactive-tools/examples/trustzone/ta1/ta1.c:287
     694:	6a3b      	ldr	r3, [r7, #32]
     696:	68da      	ldr	r2, [r3, #12]
     698:	6a3b      	ldr	r3, [r7, #32]
     69a:	691b      	ldr	r3, [r3, #16]
     69c:	4619      	mov	r1, r3
     69e:	4610      	mov	r0, r2
     6a0:	f005 fb56 	bl	5d50 <TEE_SetOperationKey>
     6a4:	61f8      	str	r0, [r7, #28]
/home/sepideh/Desktop/reactive-tools/examples/trustzone/ta1/ta1.c:288
     6a6:	69fb      	ldr	r3, [r7, #28]
     6a8:	2b00      	cmp	r3, #0
     6aa:	d010      	beq.n	6ce <set_aes_key+0x136>
/home/sepideh/Desktop/reactive-tools/examples/trustzone/ta1/ta1.c:289
     6ac:	69fb      	ldr	r3, [r7, #28]
     6ae:	9301      	str	r3, [sp, #4]
     6b0:	4b12      	ldr	r3, [pc, #72]	; (6fc <set_aes_key+0x164>)
     6b2:	447b      	add	r3, pc
     6b4:	9300      	str	r3, [sp, #0]
     6b6:	f04f 0301 	mov.w	r3, #1
     6ba:	f04f 0201 	mov.w	r2, #1
     6be:	f240 1121 	movw	r1, #289	; 0x121
     6c2:	480f      	ldr	r0, [pc, #60]	; (700 <set_aes_key+0x168>)
     6c4:	4478      	add	r0, pc
     6c6:	f002 fa1c 	bl	2b02 <trace_printf>
/home/sepideh/Desktop/reactive-tools/examples/trustzone/ta1/ta1.c:290
     6ca:	69fb      	ldr	r3, [r7, #28]
     6cc:	e000      	b.n	6d0 <set_aes_key+0x138>
/home/sepideh/Desktop/reactive-tools/examples/trustzone/ta1/ta1.c:293
     6ce:	69fb      	ldr	r3, [r7, #28]
/home/sepideh/Desktop/reactive-tools/examples/trustzone/ta1/ta1.c:294 (discriminator 1)
     6d0:	4618      	mov	r0, r3
     6d2:	f107 0728 	add.w	r7, r7, #40	; 0x28
     6d6:	46bd      	mov	sp, r7
     6d8:	bd80      	pop	{r7, pc}
     6da:	bf00      	nop
     6dc:	000127cc 	.word	0x000127cc
     6e0:	00012d46 	.word	0x00012d46
     6e4:	000127ce 	.word	0x000127ce
     6e8:	00012632 	.word	0x00012632
     6ec:	000127b2 	.word	0x000127b2
     6f0:	00012ce0 	.word	0x00012ce0
     6f4:	000126c2 	.word	0x000126c2
     6f8:	00012c84 	.word	0x00012c84
     6fc:	000126a6 	.word	0x000126a6
     700:	00012c40 	.word	0x00012c40

00000704 <reset_aes_iv>:
reset_aes_iv():
/home/sepideh/Desktop/reactive-tools/examples/trustzone/ta1/ta1.c:297
     704:	e96d 7e02 	strd	r7, lr, [sp, #-8]!
     708:	b08a      	sub	sp, #40	; 0x28
     70a:	af02      	add	r7, sp, #8
     70c:	60f8      	str	r0, [r7, #12]
     70e:	60b9      	str	r1, [r7, #8]
     710:	607a      	str	r2, [r7, #4]
     712:	603b      	str	r3, [r7, #0]
/home/sepideh/Desktop/reactive-tools/examples/trustzone/ta1/ta1.c:302
     714:	68fb      	ldr	r3, [r7, #12]
     716:	9301      	str	r3, [sp, #4]
     718:	4b36      	ldr	r3, [pc, #216]	; (7f4 <reset_aes_iv+0xf0>)
     71a:	447b      	add	r3, pc
     71c:	9300      	str	r3, [sp, #0]
     71e:	f04f 0301 	mov.w	r3, #1
     722:	f04f 0203 	mov.w	r2, #3
     726:	f44f 7197 	mov.w	r1, #302	; 0x12e
     72a:	4833      	ldr	r0, [pc, #204]	; (7f8 <reset_aes_iv+0xf4>)
     72c:	4478      	add	r0, pc
     72e:	f002 f9e8 	bl	2b02 <trace_printf>
/home/sepideh/Desktop/reactive-tools/examples/trustzone/ta1/ta1.c:303
     732:	68fb      	ldr	r3, [r7, #12]
     734:	617b      	str	r3, [r7, #20]
/home/sepideh/Desktop/reactive-tools/examples/trustzone/ta1/ta1.c:305
     736:	4b31      	ldr	r3, [pc, #196]	; (7fc <reset_aes_iv+0xf8>)
     738:	447b      	add	r3, pc
     73a:	4618      	mov	r0, r3
     73c:	f003 fbe0 	bl	3f00 <puts>
/home/sepideh/Desktop/reactive-tools/examples/trustzone/ta1/ta1.c:306
     740:	f04f 0300 	mov.w	r3, #0
     744:	61fb      	str	r3, [r7, #28]
     746:	e00d      	b.n	764 <reset_aes_iv+0x60>
/home/sepideh/Desktop/reactive-tools/examples/trustzone/ta1/ta1.c:307 (discriminator 3)
     748:	69fb      	ldr	r3, [r7, #28]
     74a:	68ba      	ldr	r2, [r7, #8]
     74c:	4413      	add	r3, r2
     74e:	781b      	ldrb	r3, [r3, #0]
     750:	4619      	mov	r1, r3
     752:	4b2b      	ldr	r3, [pc, #172]	; (800 <reset_aes_iv+0xfc>)
     754:	447b      	add	r3, pc
     756:	4618      	mov	r0, r3
     758:	f003 fb9e 	bl	3e98 <printf>
/home/sepideh/Desktop/reactive-tools/examples/trustzone/ta1/ta1.c:306 (discriminator 3)
     75c:	69fb      	ldr	r3, [r7, #28]
     75e:	f103 0301 	add.w	r3, r3, #1
     762:	61fb      	str	r3, [r7, #28]
/home/sepideh/Desktop/reactive-tools/examples/trustzone/ta1/ta1.c:306 (discriminator 1)
     764:	69fb      	ldr	r3, [r7, #28]
     766:	687a      	ldr	r2, [r7, #4]
     768:	429a      	cmp	r2, r3
     76a:	d8ed      	bhi.n	748 <reset_aes_iv+0x44>
/home/sepideh/Desktop/reactive-tools/examples/trustzone/ta1/ta1.c:308
     76c:	f04f 000a 	mov.w	r0, #10
     770:	f003 fbe2 	bl	3f38 <putchar>
/home/sepideh/Desktop/reactive-tools/examples/trustzone/ta1/ta1.c:309
     774:	f04f 0300 	mov.w	r3, #0
     778:	61bb      	str	r3, [r7, #24]
     77a:	e00d      	b.n	798 <reset_aes_iv+0x94>
/home/sepideh/Desktop/reactive-tools/examples/trustzone/ta1/ta1.c:310 (discriminator 3)
     77c:	69bb      	ldr	r3, [r7, #24]
     77e:	683a      	ldr	r2, [r7, #0]
     780:	4413      	add	r3, r2
     782:	781b      	ldrb	r3, [r3, #0]
     784:	4619      	mov	r1, r3
     786:	4b1f      	ldr	r3, [pc, #124]	; (804 <reset_aes_iv+0x100>)
     788:	447b      	add	r3, pc
     78a:	4618      	mov	r0, r3
     78c:	f003 fb84 	bl	3e98 <printf>
/home/sepideh/Desktop/reactive-tools/examples/trustzone/ta1/ta1.c:309 (discriminator 3)
     790:	69bb      	ldr	r3, [r7, #24]
     792:	f103 0301 	add.w	r3, r3, #1
     796:	61bb      	str	r3, [r7, #24]
/home/sepideh/Desktop/reactive-tools/examples/trustzone/ta1/ta1.c:309 (discriminator 1)
     798:	69bb      	ldr	r3, [r7, #24]
     79a:	6aba      	ldr	r2, [r7, #40]	; 0x28
     79c:	429a      	cmp	r2, r3
     79e:	d8ed      	bhi.n	77c <reset_aes_iv+0x78>
/home/sepideh/Desktop/reactive-tools/examples/trustzone/ta1/ta1.c:312
     7a0:	4b19      	ldr	r3, [pc, #100]	; (808 <reset_aes_iv+0x104>)
     7a2:	447b      	add	r3, pc
     7a4:	4618      	mov	r0, r3
     7a6:	f003 fb77 	bl	3e98 <printf>
/home/sepideh/Desktop/reactive-tools/examples/trustzone/ta1/ta1.c:314
     7aa:	697b      	ldr	r3, [r7, #20]
     7ac:	68d8      	ldr	r0, [r3, #12]
     7ae:	f04f 0310 	mov.w	r3, #16
     7b2:	9301      	str	r3, [sp, #4]
     7b4:	687b      	ldr	r3, [r7, #4]
     7b6:	9300      	str	r3, [sp, #0]
     7b8:	f04f 0380 	mov.w	r3, #128	; 0x80
     7bc:	6aba      	ldr	r2, [r7, #40]	; 0x28
     7be:	6839      	ldr	r1, [r7, #0]
     7c0:	f006 fb11 	bl	6de6 <TEE_AEInit>
/home/sepideh/Desktop/reactive-tools/examples/trustzone/ta1/ta1.c:316
     7c4:	4b11      	ldr	r3, [pc, #68]	; (80c <reset_aes_iv+0x108>)
     7c6:	447b      	add	r3, pc
     7c8:	4618      	mov	r0, r3
     7ca:	f003 fb65 	bl	3e98 <printf>
/home/sepideh/Desktop/reactive-tools/examples/trustzone/ta1/ta1.c:318
     7ce:	697b      	ldr	r3, [r7, #20]
     7d0:	68db      	ldr	r3, [r3, #12]
     7d2:	687a      	ldr	r2, [r7, #4]
     7d4:	68b9      	ldr	r1, [r7, #8]
     7d6:	4618      	mov	r0, r3
     7d8:	f006 fb7c 	bl	6ed4 <TEE_AEUpdateAAD>
/home/sepideh/Desktop/reactive-tools/examples/trustzone/ta1/ta1.c:320
     7dc:	4b0c      	ldr	r3, [pc, #48]	; (810 <reset_aes_iv+0x10c>)
     7de:	447b      	add	r3, pc
     7e0:	4618      	mov	r0, r3
     7e2:	f003 fb59 	bl	3e98 <printf>
/home/sepideh/Desktop/reactive-tools/examples/trustzone/ta1/ta1.c:322
     7e6:	f04f 0300 	mov.w	r3, #0
/home/sepideh/Desktop/reactive-tools/examples/trustzone/ta1/ta1.c:323
     7ea:	4618      	mov	r0, r3
     7ec:	f107 0720 	add.w	r7, r7, #32
     7f0:	46bd      	mov	sp, r7
     7f2:	bd80      	pop	{r7, pc}
     7f4:	000126ce 	.word	0x000126ce
     7f8:	00012be4 	.word	0x00012be4
     7fc:	000126d4 	.word	0x000126d4
     800:	000124c4 	.word	0x000124c4
     804:	00012490 	.word	0x00012490
     808:	000126a2 	.word	0x000126a2
     80c:	000126a6 	.word	0x000126a6
     810:	000126b6 	.word	0x000126b6

00000814 <set_key>:
set_key():
/home/sepideh/Desktop/reactive-tools/examples/trustzone/ta1/ta1.c:327
     814:	e96d 4504 	strd	r4, r5, [sp, #-16]!
     818:	e9cd 7e02 	strd	r7, lr, [sp, #8]
     81c:	b0a0      	sub	sp, #128	; 0x80
     81e:	af04      	add	r7, sp, #16
     820:	60f8      	str	r0, [r7, #12]
     822:	60b9      	str	r1, [r7, #8]
     824:	607a      	str	r2, [r7, #4]
     826:	4c9c      	ldr	r4, [pc, #624]	; (a98 <set_key+0x284>)
     828:	447c      	add	r4, pc
/home/sepideh/Desktop/reactive-tools/examples/trustzone/ta1/ta1.c:328
     82a:	f04f 030c 	mov.w	r3, #12
     82e:	f6cf 73ff 	movt	r3, #65535	; 0xffff
     832:	66fb      	str	r3, [r7, #108]	; 0x6c
/home/sepideh/Desktop/reactive-tools/examples/trustzone/ta1/ta1.c:329
     834:	f240 5355 	movw	r3, #1365	; 0x555
     838:	657b      	str	r3, [r7, #84]	; 0x54
/home/sepideh/Desktop/reactive-tools/examples/trustzone/ta1/ta1.c:336
     83a:	68fb      	ldr	r3, [r7, #12]
     83c:	9301      	str	r3, [sp, #4]
     83e:	4b97      	ldr	r3, [pc, #604]	; (a9c <set_key+0x288>)
     840:	447b      	add	r3, pc
     842:	9300      	str	r3, [sp, #0]
     844:	f04f 0301 	mov.w	r3, #1
     848:	f04f 0203 	mov.w	r2, #3
     84c:	f44f 71a8 	mov.w	r1, #336	; 0x150
     850:	4893      	ldr	r0, [pc, #588]	; (aa0 <set_key+0x28c>)
     852:	4478      	add	r0, pc
     854:	f002 f955 	bl	2b02 <trace_printf>
/home/sepideh/Desktop/reactive-tools/examples/trustzone/ta1/ta1.c:337
     858:	68fb      	ldr	r3, [r7, #12]
     85a:	653b      	str	r3, [r7, #80]	; 0x50
/home/sepideh/Desktop/reactive-tools/examples/trustzone/ta1/ta1.c:338
     85c:	f04f 0300 	mov.w	r3, #0
     860:	617b      	str	r3, [r7, #20]
     862:	f107 0318 	add.w	r3, r7, #24
     866:	efc0 0010 	vmov.i32	d16, #0	; 0x00000000
     86a:	edc3 0b00 	vstr	d16, [r3]
     86e:	edc3 0b01 	vstr	d16, [r3, #4]
/home/sepideh/Desktop/reactive-tools/examples/trustzone/ta1/ta1.c:339
     872:	f04f 0310 	mov.w	r3, #16
     876:	64fb      	str	r3, [r7, #76]	; 0x4c
/home/sepideh/Desktop/reactive-tools/examples/trustzone/ta1/ta1.c:341
     878:	f04f 0300 	mov.w	r3, #0
     87c:	f04f 0210 	mov.w	r2, #16
     880:	f04f 0102 	mov.w	r1, #2
     884:	6d38      	ldr	r0, [r7, #80]	; 0x50
     886:	f7ff fd67 	bl	358 <alloc_resources>
/home/sepideh/Desktop/reactive-tools/examples/trustzone/ta1/ta1.c:342
     88a:	f04f 0210 	mov.w	r2, #16
     88e:	4b85      	ldr	r3, [pc, #532]	; (aa4 <set_key+0x290>)
     890:	58e3      	ldr	r3, [r4, r3]
     892:	4619      	mov	r1, r3
     894:	6d38      	ldr	r0, [r7, #80]	; 0x50
     896:	f7ff fe7f 	bl	598 <set_aes_key>
/home/sepideh/Desktop/reactive-tools/examples/trustzone/ta1/ta1.c:344
     89a:	687b      	ldr	r3, [r7, #4]
     89c:	6819      	ldr	r1, [r3, #0]
     89e:	687b      	ldr	r3, [r7, #4]
     8a0:	685a      	ldr	r2, [r3, #4]
     8a2:	f107 0014 	add.w	r0, r7, #20
     8a6:	6cfb      	ldr	r3, [r7, #76]	; 0x4c
     8a8:	9300      	str	r3, [sp, #0]
     8aa:	4603      	mov	r3, r0
     8ac:	6d38      	ldr	r0, [r7, #80]	; 0x50
     8ae:	f7ff ff29 	bl	704 <reset_aes_iv>
/home/sepideh/Desktop/reactive-tools/examples/trustzone/ta1/ta1.c:347
     8b2:	687b      	ldr	r3, [r7, #4]
     8b4:	681b      	ldr	r3, [r3, #0]
     8b6:	64bb      	str	r3, [r7, #72]	; 0x48
/home/sepideh/Desktop/reactive-tools/examples/trustzone/ta1/ta1.c:350
     8b8:	f04f 0300 	mov.w	r3, #0
     8bc:	647b      	str	r3, [r7, #68]	; 0x44
/home/sepideh/Desktop/reactive-tools/examples/trustzone/ta1/ta1.c:351
     8be:	f04f 0300 	mov.w	r3, #0
     8c2:	643b      	str	r3, [r7, #64]	; 0x40
/home/sepideh/Desktop/reactive-tools/examples/trustzone/ta1/ta1.c:354
     8c4:	f04f 0100 	mov.w	r1, #0
     8c8:	f04f 0010 	mov.w	r0, #16
     8cc:	f003 ffd6 	bl	487c <TEE_Malloc>
     8d0:	6478      	str	r0, [r7, #68]	; 0x44
/home/sepideh/Desktop/reactive-tools/examples/trustzone/ta1/ta1.c:355
     8d2:	687b      	ldr	r3, [r7, #4]
     8d4:	f103 0310 	add.w	r3, r3, #16
     8d8:	685b      	ldr	r3, [r3, #4]
     8da:	f04f 0100 	mov.w	r1, #0
     8de:	4618      	mov	r0, r3
     8e0:	f003 ffcc 	bl	487c <TEE_Malloc>
     8e4:	6438      	str	r0, [r7, #64]	; 0x40
/home/sepideh/Desktop/reactive-tools/examples/trustzone/ta1/ta1.c:356
     8e6:	6c7b      	ldr	r3, [r7, #68]	; 0x44
     8e8:	2b00      	cmp	r3, #0
     8ea:	f000 80c3 	beq.w	a74 <set_key+0x260>
/home/sepideh/Desktop/reactive-tools/examples/trustzone/ta1/ta1.c:356 (discriminator 1)
     8ee:	6c3b      	ldr	r3, [r7, #64]	; 0x40
     8f0:	2b00      	cmp	r3, #0
     8f2:	f000 80bf 	beq.w	a74 <set_key+0x260>
/home/sepideh/Desktop/reactive-tools/examples/trustzone/ta1/ta1.c:359
     8f6:	687b      	ldr	r3, [r7, #4]
     8f8:	f103 0310 	add.w	r3, r3, #16
     8fc:	6819      	ldr	r1, [r3, #0]
     8fe:	687b      	ldr	r3, [r7, #4]
     900:	f103 0310 	add.w	r3, r3, #16
     904:	685b      	ldr	r3, [r3, #4]
     906:	461a      	mov	r2, r3
     908:	6c38      	ldr	r0, [r7, #64]	; 0x40
     90a:	f003 fed3 	bl	46b4 <TEE_MemMove>
/home/sepideh/Desktop/reactive-tools/examples/trustzone/ta1/ta1.c:361
     90e:	6d3b      	ldr	r3, [r7, #80]	; 0x50
     910:	68d8      	ldr	r0, [r3, #12]
     912:	687b      	ldr	r3, [r7, #4]
     914:	f103 0308 	add.w	r3, r3, #8
     918:	6819      	ldr	r1, [r3, #0]
/home/sepideh/Desktop/reactive-tools/examples/trustzone/ta1/ta1.c:362
     91a:	687b      	ldr	r3, [r7, #4]
     91c:	f103 0308 	add.w	r3, r3, #8
/home/sepideh/Desktop/reactive-tools/examples/trustzone/ta1/ta1.c:361
     920:	685d      	ldr	r5, [r3, #4]
/home/sepideh/Desktop/reactive-tools/examples/trustzone/ta1/ta1.c:362
     922:	687b      	ldr	r3, [r7, #4]
     924:	f103 0310 	add.w	r3, r3, #16
/home/sepideh/Desktop/reactive-tools/examples/trustzone/ta1/ta1.c:361
     928:	f103 0304 	add.w	r3, r3, #4
/home/sepideh/Desktop/reactive-tools/examples/trustzone/ta1/ta1.c:363
     92c:	687a      	ldr	r2, [r7, #4]
     92e:	f102 0210 	add.w	r2, r2, #16
/home/sepideh/Desktop/reactive-tools/examples/trustzone/ta1/ta1.c:361
     932:	6852      	ldr	r2, [r2, #4]
     934:	9202      	str	r2, [sp, #8]
     936:	6c3a      	ldr	r2, [r7, #64]	; 0x40
     938:	9201      	str	r2, [sp, #4]
     93a:	9300      	str	r3, [sp, #0]
     93c:	6c7b      	ldr	r3, [r7, #68]	; 0x44
     93e:	462a      	mov	r2, r5
     940:	f006 fcd4 	bl	72ec <TEE_AEDecryptFinal>
     944:	66f8      	str	r0, [r7, #108]	; 0x6c
/home/sepideh/Desktop/reactive-tools/examples/trustzone/ta1/ta1.c:365
     946:	6efb      	ldr	r3, [r7, #108]	; 0x6c
     948:	2b00      	cmp	r3, #0
     94a:	f040 8095 	bne.w	a78 <set_key+0x264>
/home/sepideh/Desktop/reactive-tools/examples/trustzone/ta1/ta1.c:366
     94e:	4b56      	ldr	r3, [pc, #344]	; (aa8 <set_key+0x294>)
     950:	447b      	add	r3, pc
     952:	4618      	mov	r0, r3
     954:	f003 fad4 	bl	3f00 <puts>
/home/sepideh/Desktop/reactive-tools/examples/trustzone/ta1/ta1.c:367
     958:	6c7b      	ldr	r3, [r7, #68]	; 0x44
     95a:	63fb      	str	r3, [r7, #60]	; 0x3c
/home/sepideh/Desktop/reactive-tools/examples/trustzone/ta1/ta1.c:368
     95c:	f04f 0300 	mov.w	r3, #0
     960:	66bb      	str	r3, [r7, #104]	; 0x68
     962:	e00d      	b.n	980 <set_key+0x16c>
/home/sepideh/Desktop/reactive-tools/examples/trustzone/ta1/ta1.c:369 (discriminator 3)
     964:	6ebb      	ldr	r3, [r7, #104]	; 0x68
     966:	6bfa      	ldr	r2, [r7, #60]	; 0x3c
     968:	4413      	add	r3, r2
     96a:	7819      	ldrb	r1, [r3, #0]
     96c:	f107 022a 	add.w	r2, r7, #42	; 0x2a
     970:	6ebb      	ldr	r3, [r7, #104]	; 0x68
     972:	4413      	add	r3, r2
     974:	460a      	mov	r2, r1
     976:	701a      	strb	r2, [r3, #0]
/home/sepideh/Desktop/reactive-tools/examples/trustzone/ta1/ta1.c:368 (discriminator 3)
     978:	6ebb      	ldr	r3, [r7, #104]	; 0x68
     97a:	f103 0301 	add.w	r3, r3, #1
     97e:	66bb      	str	r3, [r7, #104]	; 0x68
/home/sepideh/Desktop/reactive-tools/examples/trustzone/ta1/ta1.c:368 (discriminator 1)
     980:	6ebb      	ldr	r3, [r7, #104]	; 0x68
     982:	2b0f      	cmp	r3, #15
     984:	ddee      	ble.n	964 <set_key+0x150>
/home/sepideh/Desktop/reactive-tools/examples/trustzone/ta1/ta1.c:371
     986:	f04f 000a 	mov.w	r0, #10
     98a:	f003 fad5 	bl	3f38 <putchar>
/home/sepideh/Desktop/reactive-tools/examples/trustzone/ta1/ta1.c:372
     98e:	f04f 0300 	mov.w	r3, #0
     992:	667b      	str	r3, [r7, #100]	; 0x64
     994:	e00e      	b.n	9b4 <set_key+0x1a0>
/home/sepideh/Desktop/reactive-tools/examples/trustzone/ta1/ta1.c:373 (discriminator 3)
     996:	f107 022a 	add.w	r2, r7, #42	; 0x2a
     99a:	6e7b      	ldr	r3, [r7, #100]	; 0x64
     99c:	4413      	add	r3, r2
     99e:	781b      	ldrb	r3, [r3, #0]
     9a0:	4619      	mov	r1, r3
     9a2:	4b42      	ldr	r3, [pc, #264]	; (aac <set_key+0x298>)
     9a4:	447b      	add	r3, pc
     9a6:	4618      	mov	r0, r3
     9a8:	f003 fa76 	bl	3e98 <printf>
/home/sepideh/Desktop/reactive-tools/examples/trustzone/ta1/ta1.c:372 (discriminator 3)
     9ac:	6e7b      	ldr	r3, [r7, #100]	; 0x64
     9ae:	f103 0301 	add.w	r3, r3, #1
     9b2:	667b      	str	r3, [r7, #100]	; 0x64
/home/sepideh/Desktop/reactive-tools/examples/trustzone/ta1/ta1.c:372 (discriminator 1)
     9b4:	6e7b      	ldr	r3, [r7, #100]	; 0x64
     9b6:	2b0f      	cmp	r3, #15
     9b8:	dded      	ble.n	996 <set_key+0x182>
/home/sepideh/Desktop/reactive-tools/examples/trustzone/ta1/ta1.c:374
     9ba:	f04f 000a 	mov.w	r0, #10
     9be:	f003 fabb 	bl	3f38 <putchar>
/home/sepideh/Desktop/reactive-tools/examples/trustzone/ta1/ta1.c:376
     9c2:	f04f 0300 	mov.w	r3, #0
     9c6:	853b      	strh	r3, [r7, #40]	; 0x28
/home/sepideh/Desktop/reactive-tools/examples/trustzone/ta1/ta1.c:377
     9c8:	f04f 0300 	mov.w	r3, #0
     9cc:	663b      	str	r3, [r7, #96]	; 0x60
/home/sepideh/Desktop/reactive-tools/examples/trustzone/ta1/ta1.c:378
     9ce:	f04f 0300 	mov.w	r3, #0
     9d2:	84bb      	strh	r3, [r7, #36]	; 0x24
/home/sepideh/Desktop/reactive-tools/examples/trustzone/ta1/ta1.c:379
     9d4:	f04f 0302 	mov.w	r3, #2
     9d8:	65fb      	str	r3, [r7, #92]	; 0x5c
     9da:	e016      	b.n	a0a <set_key+0x1f6>
/home/sepideh/Desktop/reactive-tools/examples/trustzone/ta1/ta1.c:380 (discriminator 3)
     9dc:	8cba      	ldrh	r2, [r7, #36]	; 0x24
     9de:	6dfb      	ldr	r3, [r7, #92]	; 0x5c
     9e0:	6cb9      	ldr	r1, [r7, #72]	; 0x48
     9e2:	440b      	add	r3, r1
     9e4:	781b      	ldrb	r3, [r3, #0]
     9e6:	4619      	mov	r1, r3
     9e8:	6e3b      	ldr	r3, [r7, #96]	; 0x60
     9ea:	ea4f 03c3 	mov.w	r3, r3, lsl #3
     9ee:	fa01 f303 	lsl.w	r3, r1, r3
     9f2:	b29b      	uxth	r3, r3
     9f4:	4413      	add	r3, r2
     9f6:	b29b      	uxth	r3, r3
     9f8:	84bb      	strh	r3, [r7, #36]	; 0x24
/home/sepideh/Desktop/reactive-tools/examples/trustzone/ta1/ta1.c:381 (discriminator 3)
     9fa:	6e3b      	ldr	r3, [r7, #96]	; 0x60
     9fc:	f103 0301 	add.w	r3, r3, #1
     a00:	663b      	str	r3, [r7, #96]	; 0x60
/home/sepideh/Desktop/reactive-tools/examples/trustzone/ta1/ta1.c:379 (discriminator 3)
     a02:	6dfb      	ldr	r3, [r7, #92]	; 0x5c
     a04:	f103 33ff 	add.w	r3, r3, #4294967295	; 0xffffffff
     a08:	65fb      	str	r3, [r7, #92]	; 0x5c
/home/sepideh/Desktop/reactive-tools/examples/trustzone/ta1/ta1.c:379 (discriminator 1)
     a0a:	6dfb      	ldr	r3, [r7, #92]	; 0x5c
     a0c:	2b00      	cmp	r3, #0
     a0e:	dce5      	bgt.n	9dc <set_key+0x1c8>
/home/sepideh/Desktop/reactive-tools/examples/trustzone/ta1/ta1.c:383
     a10:	f04f 0300 	mov.w	r3, #0
     a14:	663b      	str	r3, [r7, #96]	; 0x60
/home/sepideh/Desktop/reactive-tools/examples/trustzone/ta1/ta1.c:384
     a16:	f04f 0300 	mov.w	r3, #0
     a1a:	84fb      	strh	r3, [r7, #38]	; 0x26
/home/sepideh/Desktop/reactive-tools/examples/trustzone/ta1/ta1.c:385
     a1c:	f04f 0304 	mov.w	r3, #4
     a20:	65bb      	str	r3, [r7, #88]	; 0x58
     a22:	e016      	b.n	a52 <set_key+0x23e>
/home/sepideh/Desktop/reactive-tools/examples/trustzone/ta1/ta1.c:386 (discriminator 3)
     a24:	8cfa      	ldrh	r2, [r7, #38]	; 0x26
     a26:	6dbb      	ldr	r3, [r7, #88]	; 0x58
     a28:	6cb9      	ldr	r1, [r7, #72]	; 0x48
     a2a:	440b      	add	r3, r1
     a2c:	781b      	ldrb	r3, [r3, #0]
     a2e:	4619      	mov	r1, r3
     a30:	6e3b      	ldr	r3, [r7, #96]	; 0x60
     a32:	ea4f 03c3 	mov.w	r3, r3, lsl #3
     a36:	fa01 f303 	lsl.w	r3, r1, r3
     a3a:	b29b      	uxth	r3, r3
     a3c:	4413      	add	r3, r2
     a3e:	b29b      	uxth	r3, r3
     a40:	84fb      	strh	r3, [r7, #38]	; 0x26
/home/sepideh/Desktop/reactive-tools/examples/trustzone/ta1/ta1.c:387 (discriminator 3)
     a42:	6e3b      	ldr	r3, [r7, #96]	; 0x60
     a44:	f103 0301 	add.w	r3, r3, #1
     a48:	663b      	str	r3, [r7, #96]	; 0x60
/home/sepideh/Desktop/reactive-tools/examples/trustzone/ta1/ta1.c:385 (discriminator 3)
     a4a:	6dbb      	ldr	r3, [r7, #88]	; 0x58
     a4c:	f103 33ff 	add.w	r3, r3, #4294967295	; 0xffffffff
     a50:	65bb      	str	r3, [r7, #88]	; 0x58
/home/sepideh/Desktop/reactive-tools/examples/trustzone/ta1/ta1.c:385 (discriminator 1)
     a52:	6dbb      	ldr	r3, [r7, #88]	; 0x58
     a54:	2b02      	cmp	r3, #2
     a56:	dce5      	bgt.n	a24 <set_key+0x210>
/home/sepideh/Desktop/reactive-tools/examples/trustzone/ta1/ta1.c:389
     a58:	4b15      	ldr	r3, [pc, #84]	; (ab0 <set_key+0x29c>)
     a5a:	58e3      	ldr	r3, [r4, r3]
     a5c:	681b      	ldr	r3, [r3, #0]
     a5e:	f103 0301 	add.w	r3, r3, #1
     a62:	4a13      	ldr	r2, [pc, #76]	; (ab0 <set_key+0x29c>)
     a64:	58a2      	ldr	r2, [r4, r2]
     a66:	6013      	str	r3, [r2, #0]
/home/sepideh/Desktop/reactive-tools/examples/trustzone/ta1/ta1.c:390
     a68:	f107 0324 	add.w	r3, r7, #36	; 0x24
     a6c:	4618      	mov	r0, r3
     a6e:	f7ff faeb 	bl	48 <connections_add>
     a72:	e002      	b.n	a7a <set_key+0x266>
/home/sepideh/Desktop/reactive-tools/examples/trustzone/ta1/ta1.c:357
     a74:	bf00      	nop
     a76:	e000      	b.n	a7a <set_key+0x266>
/home/sepideh/Desktop/reactive-tools/examples/trustzone/ta1/ta1.c:393
     a78:	bf00      	nop
/home/sepideh/Desktop/reactive-tools/examples/trustzone/ta1/ta1.c:394
     a7a:	6c78      	ldr	r0, [r7, #68]	; 0x44
     a7c:	f003 ff42 	bl	4904 <TEE_Free>
/home/sepideh/Desktop/reactive-tools/examples/trustzone/ta1/ta1.c:395
     a80:	6c38      	ldr	r0, [r7, #64]	; 0x40
     a82:	f003 ff3f 	bl	4904 <TEE_Free>
/home/sepideh/Desktop/reactive-tools/examples/trustzone/ta1/ta1.c:397
     a86:	6efb      	ldr	r3, [r7, #108]	; 0x6c
/home/sepideh/Desktop/reactive-tools/examples/trustzone/ta1/ta1.c:398
     a88:	4618      	mov	r0, r3
     a8a:	f107 0770 	add.w	r7, r7, #112	; 0x70
     a8e:	46bd      	mov	sp, r7
     a90:	e9dd 4500 	ldrd	r4, r5, [sp]
     a94:	b002      	add	sp, #8
     a96:	bd80      	pop	{r7, pc}
     a98:	0001585c 	.word	0x0001585c
     a9c:	0001267c 	.word	0x0001267c
     aa0:	00012ace 	.word	0x00012ace
     aa4:	00000048 	.word	0x00000048
     aa8:	00012588 	.word	0x00012588
     aac:	00012274 	.word	0x00012274
     ab0:	00000014 	.word	0x00000014

00000ab4 <encrypt_using_public_key>:
encrypt_using_public_key():
/home/sepideh/Desktop/reactive-tools/examples/trustzone/ta1/ta1.c:401
     ab4:	e96d 7e02 	strd	r7, lr, [sp, #-8]!
     ab8:	b09e      	sub	sp, #120	; 0x78
     aba:	af04      	add	r7, sp, #16
     abc:	60f8      	str	r0, [r7, #12]
     abe:	60b9      	str	r1, [r7, #8]
     ac0:	607a      	str	r2, [r7, #4]
     ac2:	603b      	str	r3, [r7, #0]
     ac4:	4b78      	ldr	r3, [pc, #480]	; (ca8 <encrypt_using_public_key+0x1f4>)
     ac6:	447b      	add	r3, pc
/home/sepideh/Desktop/reactive-tools/examples/trustzone/ta1/ta1.c:403
     ac8:	f04f 0200 	mov.w	r2, #0
     acc:	667a      	str	r2, [r7, #100]	; 0x64
/home/sepideh/Desktop/reactive-tools/examples/trustzone/ta1/ta1.c:404
     ace:	f04f 0200 	mov.w	r2, #0
     ad2:	65ba      	str	r2, [r7, #88]	; 0x58
/home/sepideh/Desktop/reactive-tools/examples/trustzone/ta1/ta1.c:407
     ad4:	f04f 0200 	mov.w	r2, #0
     ad8:	617a      	str	r2, [r7, #20]
/home/sepideh/Desktop/reactive-tools/examples/trustzone/ta1/ta1.c:410
     ada:	f44f 7298 	mov.w	r2, #304	; 0x130
     ade:	f2cd 0200 	movt	r2, #53248	; 0xd000
     ae2:	637a      	str	r2, [r7, #52]	; 0x34
/home/sepideh/Desktop/reactive-tools/examples/trustzone/ta1/ta1.c:411
     ae4:	4a71      	ldr	r2, [pc, #452]	; (cac <encrypt_using_public_key+0x1f8>)
     ae6:	589a      	ldr	r2, [r3, r2]
     ae8:	63ba      	str	r2, [r7, #56]	; 0x38
/home/sepideh/Desktop/reactive-tools/examples/trustzone/ta1/ta1.c:412
     aea:	f04f 0240 	mov.w	r2, #64	; 0x40
     aee:	63fa      	str	r2, [r7, #60]	; 0x3c
/home/sepideh/Desktop/reactive-tools/examples/trustzone/ta1/ta1.c:414
     af0:	f44f 720c 	mov.w	r2, #560	; 0x230
     af4:	f2cd 0200 	movt	r2, #53248	; 0xd000
     af8:	643a      	str	r2, [r7, #64]	; 0x40
/home/sepideh/Desktop/reactive-tools/examples/trustzone/ta1/ta1.c:415
     afa:	4a6d      	ldr	r2, [pc, #436]	; (cb0 <encrypt_using_public_key+0x1fc>)
     afc:	589a      	ldr	r2, [r3, r2]
     afe:	647a      	str	r2, [r7, #68]	; 0x44
/home/sepideh/Desktop/reactive-tools/examples/trustzone/ta1/ta1.c:416
     b00:	f04f 0203 	mov.w	r2, #3
     b04:	64ba      	str	r2, [r7, #72]	; 0x48
/home/sepideh/Desktop/reactive-tools/examples/trustzone/ta1/ta1.c:418
     b06:	f44f 724c 	mov.w	r2, #816	; 0x330
     b0a:	f2cc 0200 	movt	r2, #49152	; 0xc000
     b0e:	64fa      	str	r2, [r7, #76]	; 0x4c
/home/sepideh/Desktop/reactive-tools/examples/trustzone/ta1/ta1.c:419
     b10:	4a68      	ldr	r2, [pc, #416]	; (cb4 <encrypt_using_public_key+0x200>)
     b12:	589b      	ldr	r3, [r3, r2]
     b14:	653b      	str	r3, [r7, #80]	; 0x50
/home/sepideh/Desktop/reactive-tools/examples/trustzone/ta1/ta1.c:420
     b16:	f04f 0340 	mov.w	r3, #64	; 0x40
     b1a:	657b      	str	r3, [r7, #84]	; 0x54
/home/sepideh/Desktop/reactive-tools/examples/trustzone/ta1/ta1.c:423
     b1c:	f107 0358 	add.w	r3, r7, #88	; 0x58
     b20:	461a      	mov	r2, r3
     b22:	f44f 7100 	mov.w	r1, #512	; 0x200
     b26:	f04f 0030 	mov.w	r0, #48	; 0x30
     b2a:	f2ca 1000 	movt	r0, #41216	; 0xa100
     b2e:	f011 f959 	bl	11de4 <TEE_AllocateTransientObject>
     b32:	6678      	str	r0, [r7, #100]	; 0x64
/home/sepideh/Desktop/reactive-tools/examples/trustzone/ta1/ta1.c:424
     b34:	6e7b      	ldr	r3, [r7, #100]	; 0x64
     b36:	2b00      	cmp	r3, #0
     b38:	d004      	beq.n	b44 <encrypt_using_public_key+0x90>
/home/sepideh/Desktop/reactive-tools/examples/trustzone/ta1/ta1.c:425
     b3a:	f04f 0306 	mov.w	r3, #6
     b3e:	f6cf 73ff 	movt	r3, #65535	; 0xffff
     b42:	e0ab      	b.n	c9c <encrypt_using_public_key+0x1e8>
/home/sepideh/Desktop/reactive-tools/examples/trustzone/ta1/ta1.c:429
     b44:	6dbb      	ldr	r3, [r7, #88]	; 0x58
     b46:	f107 0134 	add.w	r1, r7, #52	; 0x34
     b4a:	f04f 0203 	mov.w	r2, #3
     b4e:	4618      	mov	r0, r3
     b50:	f011 f9dd 	bl	11f0e <TEE_PopulateTransientObject>
     b54:	6678      	str	r0, [r7, #100]	; 0x64
/home/sepideh/Desktop/reactive-tools/examples/trustzone/ta1/ta1.c:430
     b56:	4b58      	ldr	r3, [pc, #352]	; (cb8 <encrypt_using_public_key+0x204>)
     b58:	447b      	add	r3, pc
     b5a:	4618      	mov	r0, r3
     b5c:	f003 f99c 	bl	3e98 <printf>
/home/sepideh/Desktop/reactive-tools/examples/trustzone/ta1/ta1.c:431
     b60:	6e7b      	ldr	r3, [r7, #100]	; 0x64
     b62:	2b00      	cmp	r3, #0
     b64:	d004      	beq.n	b70 <encrypt_using_public_key+0xbc>
/home/sepideh/Desktop/reactive-tools/examples/trustzone/ta1/ta1.c:432
     b66:	f04f 0306 	mov.w	r3, #6
     b6a:	f6cf 73ff 	movt	r3, #65535	; 0xffff
     b6e:	e095      	b.n	c9c <encrypt_using_public_key+0x1e8>
/home/sepideh/Desktop/reactive-tools/examples/trustzone/ta1/ta1.c:435
     b70:	6dbb      	ldr	r3, [r7, #88]	; 0x58
     b72:	f107 0218 	add.w	r2, r7, #24
     b76:	4611      	mov	r1, r2
     b78:	4618      	mov	r0, r3
     b7a:	f010 ff98 	bl	11aae <TEE_GetObjectInfo>
/home/sepideh/Desktop/reactive-tools/examples/trustzone/ta1/ta1.c:438
     b7e:	6a3b      	ldr	r3, [r7, #32]
     b80:	f107 0014 	add.w	r0, r7, #20
     b84:	f04f 0200 	mov.w	r2, #0
     b88:	f44f 7198 	mov.w	r1, #304	; 0x130
     b8c:	f2c6 0100 	movt	r1, #24576	; 0x6000
     b90:	f004 f86e 	bl	4c70 <TEE_AllocateOperation>
     b94:	6678      	str	r0, [r7, #100]	; 0x64
/home/sepideh/Desktop/reactive-tools/examples/trustzone/ta1/ta1.c:439
     b96:	6e7b      	ldr	r3, [r7, #100]	; 0x64
     b98:	2b00      	cmp	r3, #0
     b9a:	d002      	beq.n	ba2 <encrypt_using_public_key+0xee>
/home/sepideh/Desktop/reactive-tools/examples/trustzone/ta1/ta1.c:440
     b9c:	f04f 0300 	mov.w	r3, #0
     ba0:	e07c      	b.n	c9c <encrypt_using_public_key+0x1e8>
/home/sepideh/Desktop/reactive-tools/examples/trustzone/ta1/ta1.c:444
     ba2:	697b      	ldr	r3, [r7, #20]
     ba4:	6dba      	ldr	r2, [r7, #88]	; 0x58
     ba6:	4611      	mov	r1, r2
     ba8:	4618      	mov	r0, r3
     baa:	f005 f8d1 	bl	5d50 <TEE_SetOperationKey>
     bae:	6678      	str	r0, [r7, #100]	; 0x64
/home/sepideh/Desktop/reactive-tools/examples/trustzone/ta1/ta1.c:445
     bb0:	6e7b      	ldr	r3, [r7, #100]	; 0x64
     bb2:	2b00      	cmp	r3, #0
     bb4:	d006      	beq.n	bc4 <encrypt_using_public_key+0x110>
/home/sepideh/Desktop/reactive-tools/examples/trustzone/ta1/ta1.c:446
     bb6:	697b      	ldr	r3, [r7, #20]
     bb8:	4618      	mov	r0, r3
     bba:	f004 ff47 	bl	5a4c <TEE_FreeOperation>
/home/sepideh/Desktop/reactive-tools/examples/trustzone/ta1/ta1.c:447
     bbe:	f04f 0300 	mov.w	r3, #0
     bc2:	e06b      	b.n	c9c <encrypt_using_public_key+0x1e8>
/home/sepideh/Desktop/reactive-tools/examples/trustzone/ta1/ta1.c:450
     bc4:	f04f 0300 	mov.w	r3, #0
     bc8:	663b      	str	r3, [r7, #96]	; 0x60
/home/sepideh/Desktop/reactive-tools/examples/trustzone/ta1/ta1.c:451
     bca:	f44f 7380 	mov.w	r3, #256	; 0x100
     bce:	613b      	str	r3, [r7, #16]
/home/sepideh/Desktop/reactive-tools/examples/trustzone/ta1/ta1.c:452
     bd0:	f04f 0300 	mov.w	r3, #0
     bd4:	65fb      	str	r3, [r7, #92]	; 0x5c
/home/sepideh/Desktop/reactive-tools/examples/trustzone/ta1/ta1.c:454
     bd6:	68bb      	ldr	r3, [r7, #8]
     bd8:	f04f 0100 	mov.w	r1, #0
     bdc:	4618      	mov	r0, r3
     bde:	f003 fe4d 	bl	487c <TEE_Malloc>
     be2:	6638      	str	r0, [r7, #96]	; 0x60
/home/sepideh/Desktop/reactive-tools/examples/trustzone/ta1/ta1.c:455
     be4:	693b      	ldr	r3, [r7, #16]
     be6:	f04f 0100 	mov.w	r1, #0
     bea:	4618      	mov	r0, r3
     bec:	f003 fe46 	bl	487c <TEE_Malloc>
     bf0:	65f8      	str	r0, [r7, #92]	; 0x5c
/home/sepideh/Desktop/reactive-tools/examples/trustzone/ta1/ta1.c:456
     bf2:	6e3b      	ldr	r3, [r7, #96]	; 0x60
     bf4:	2b00      	cmp	r3, #0
     bf6:	d002      	beq.n	bfe <encrypt_using_public_key+0x14a>
/home/sepideh/Desktop/reactive-tools/examples/trustzone/ta1/ta1.c:456 (discriminator 1)
     bf8:	6dfb      	ldr	r3, [r7, #92]	; 0x5c
     bfa:	2b00      	cmp	r3, #0
     bfc:	d104      	bne.n	c08 <encrypt_using_public_key+0x154>
/home/sepideh/Desktop/reactive-tools/examples/trustzone/ta1/ta1.c:457
     bfe:	f04f 0306 	mov.w	r3, #6
     c02:	f6cf 73ff 	movt	r3, #65535	; 0xffff
     c06:	e049      	b.n	c9c <encrypt_using_public_key+0x1e8>
/home/sepideh/Desktop/reactive-tools/examples/trustzone/ta1/ta1.c:459
     c08:	68bb      	ldr	r3, [r7, #8]
     c0a:	461a      	mov	r2, r3
     c0c:	68f9      	ldr	r1, [r7, #12]
     c0e:	6e38      	ldr	r0, [r7, #96]	; 0x60
     c10:	f003 fd50 	bl	46b4 <TEE_MemMove>
/home/sepideh/Desktop/reactive-tools/examples/trustzone/ta1/ta1.c:461
     c14:	4b29      	ldr	r3, [pc, #164]	; (cbc <encrypt_using_public_key+0x208>)
     c16:	447b      	add	r3, pc
     c18:	4618      	mov	r0, r3
     c1a:	f003 f971 	bl	3f00 <puts>
/home/sepideh/Desktop/reactive-tools/examples/trustzone/ta1/ta1.c:462
     c1e:	6978      	ldr	r0, [r7, #20]
     c20:	68bb      	ldr	r3, [r7, #8]
     c22:	f107 0210 	add.w	r2, r7, #16
     c26:	9202      	str	r2, [sp, #8]
     c28:	6dfa      	ldr	r2, [r7, #92]	; 0x5c
     c2a:	9201      	str	r2, [sp, #4]
     c2c:	9300      	str	r3, [sp, #0]
     c2e:	6e3b      	ldr	r3, [r7, #96]	; 0x60
     c30:	f04f 0200 	mov.w	r2, #0
     c34:	f04f 0100 	mov.w	r1, #0
     c38:	f006 fc3e 	bl	74b8 <TEE_AsymmetricEncrypt>
     c3c:	6678      	str	r0, [r7, #100]	; 0x64
/home/sepideh/Desktop/reactive-tools/examples/trustzone/ta1/ta1.c:464
     c3e:	4b20      	ldr	r3, [pc, #128]	; (cc0 <encrypt_using_public_key+0x20c>)
     c40:	447b      	add	r3, pc
     c42:	4618      	mov	r0, r3
     c44:	f003 f95c 	bl	3f00 <puts>
/home/sepideh/Desktop/reactive-tools/examples/trustzone/ta1/ta1.c:465
     c48:	6e7b      	ldr	r3, [r7, #100]	; 0x64
     c4a:	2b00      	cmp	r3, #0
     c4c:	d006      	beq.n	c5c <encrypt_using_public_key+0x1a8>
/home/sepideh/Desktop/reactive-tools/examples/trustzone/ta1/ta1.c:466
     c4e:	697b      	ldr	r3, [r7, #20]
     c50:	4618      	mov	r0, r3
     c52:	f004 fefb 	bl	5a4c <TEE_FreeOperation>
/home/sepideh/Desktop/reactive-tools/examples/trustzone/ta1/ta1.c:467
     c56:	f04f 0300 	mov.w	r3, #0
     c5a:	e01f      	b.n	c9c <encrypt_using_public_key+0x1e8>
/home/sepideh/Desktop/reactive-tools/examples/trustzone/ta1/ta1.c:471
     c5c:	693b      	ldr	r3, [r7, #16]
     c5e:	461a      	mov	r2, r3
     c60:	6df9      	ldr	r1, [r7, #92]	; 0x5c
     c62:	6878      	ldr	r0, [r7, #4]
     c64:	f010 fb3e 	bl	112e4 <memcpy>
/home/sepideh/Desktop/reactive-tools/examples/trustzone/ta1/ta1.c:472
     c68:	693b      	ldr	r3, [r7, #16]
     c6a:	461a      	mov	r2, r3
     c6c:	683b      	ldr	r3, [r7, #0]
     c6e:	601a      	str	r2, [r3, #0]
/home/sepideh/Desktop/reactive-tools/examples/trustzone/ta1/ta1.c:473
     c70:	693b      	ldr	r3, [r7, #16]
     c72:	687a      	ldr	r2, [r7, #4]
     c74:	4413      	add	r3, r2
     c76:	f04f 0200 	mov.w	r2, #0
     c7a:	701a      	strb	r2, [r3, #0]
/home/sepideh/Desktop/reactive-tools/examples/trustzone/ta1/ta1.c:476
     c7c:	697b      	ldr	r3, [r7, #20]
     c7e:	4618      	mov	r0, r3
     c80:	f004 fee4 	bl	5a4c <TEE_FreeOperation>
/home/sepideh/Desktop/reactive-tools/examples/trustzone/ta1/ta1.c:477
     c84:	6dbb      	ldr	r3, [r7, #88]	; 0x58
     c86:	4618      	mov	r0, r3
     c88:	f011 f8e1 	bl	11e4e <TEE_FreeTransientObject>
/home/sepideh/Desktop/reactive-tools/examples/trustzone/ta1/ta1.c:478
     c8c:	6df8      	ldr	r0, [r7, #92]	; 0x5c
     c8e:	f003 fe39 	bl	4904 <TEE_Free>
/home/sepideh/Desktop/reactive-tools/examples/trustzone/ta1/ta1.c:479
     c92:	6e38      	ldr	r0, [r7, #96]	; 0x60
     c94:	f003 fe36 	bl	4904 <TEE_Free>
/home/sepideh/Desktop/reactive-tools/examples/trustzone/ta1/ta1.c:482
     c98:	f04f 0300 	mov.w	r3, #0
/home/sepideh/Desktop/reactive-tools/examples/trustzone/ta1/ta1.c:483 (discriminator 1)
     c9c:	4618      	mov	r0, r3
     c9e:	f107 0768 	add.w	r7, r7, #104	; 0x68
     ca2:	46bd      	mov	sp, r7
     ca4:	bd80      	pop	{r7, pc}
     ca6:	bf00      	nop
     ca8:	000155be 	.word	0x000155be
     cac:	00000054 	.word	0x00000054
     cb0:	0000000c 	.word	0x0000000c
     cb4:	0000004c 	.word	0x0000004c
     cb8:	00012398 	.word	0x00012398
     cbc:	00012316 	.word	0x00012316
     cc0:	000122f4 	.word	0x000122f4

00000cc4 <encrypt_module_key>:
encrypt_module_key():
/home/sepideh/Desktop/reactive-tools/examples/trustzone/ta1/ta1.c:485
     cc4:	f84d 4d0c 	str.w	r4, [sp, #-12]!
     cc8:	e9cd 7e01 	strd	r7, lr, [sp, #4]
     ccc:	b0c9      	sub	sp, #292	; 0x124
     cce:	af02      	add	r7, sp, #8
     cd0:	f107 0304 	add.w	r3, r7, #4
     cd4:	6018      	str	r0, [r3, #0]
     cd6:	4c58      	ldr	r4, [pc, #352]	; (e38 <encrypt_module_key+0x174>)
     cd8:	447c      	add	r4, pc
/home/sepideh/Desktop/reactive-tools/examples/trustzone/ta1/ta1.c:486
     cda:	f04f 0300 	mov.w	r3, #0
     cde:	f8c7 3110 	str.w	r3, [r7, #272]	; 0x110
/home/sepideh/Desktop/reactive-tools/examples/trustzone/ta1/ta1.c:487
     ce2:	f04f 0100 	mov.w	r1, #0
     ce6:	f04f 0010 	mov.w	r0, #16
     cea:	f003 fdc7 	bl	487c <TEE_Malloc>
     cee:	f8c7 0110 	str.w	r0, [r7, #272]	; 0x110
/home/sepideh/Desktop/reactive-tools/examples/trustzone/ta1/ta1.c:488
     cf2:	f8d7 3110 	ldr.w	r3, [r7, #272]	; 0x110
     cf6:	2b00      	cmp	r3, #0
     cf8:	d104      	bne.n	d04 <encrypt_module_key+0x40>
/home/sepideh/Desktop/reactive-tools/examples/trustzone/ta1/ta1.c:489
     cfa:	f04f 030c 	mov.w	r3, #12
     cfe:	f6cf 73ff 	movt	r3, #65535	; 0xffff
     d02:	e08f      	b.n	e24 <encrypt_module_key+0x160>
/home/sepideh/Desktop/reactive-tools/examples/trustzone/ta1/ta1.c:490
     d04:	f04f 0110 	mov.w	r1, #16
     d08:	f8d7 0110 	ldr.w	r0, [r7, #272]	; 0x110
     d0c:	f006 ffc4 	bl	7c98 <TEE_GenerateRandom>
/home/sepideh/Desktop/reactive-tools/examples/trustzone/ta1/ta1.c:491
     d10:	f04f 0210 	mov.w	r2, #16
     d14:	f8d7 1110 	ldr.w	r1, [r7, #272]	; 0x110
     d18:	4b48      	ldr	r3, [pc, #288]	; (e3c <encrypt_module_key+0x178>)
     d1a:	58e3      	ldr	r3, [r4, r3]
     d1c:	4618      	mov	r0, r3
     d1e:	f003 fcc9 	bl	46b4 <TEE_MemMove>
/home/sepideh/Desktop/reactive-tools/examples/trustzone/ta1/ta1.c:492
     d22:	4b47      	ldr	r3, [pc, #284]	; (e40 <encrypt_module_key+0x17c>)
     d24:	447b      	add	r3, pc
     d26:	4618      	mov	r0, r3
     d28:	f003 f8ea 	bl	3f00 <puts>
/home/sepideh/Desktop/reactive-tools/examples/trustzone/ta1/ta1.c:493
     d2c:	f04f 0300 	mov.w	r3, #0
     d30:	f8c7 3114 	str.w	r3, [r7, #276]	; 0x114
     d34:	e012      	b.n	d5c <encrypt_module_key+0x98>
/home/sepideh/Desktop/reactive-tools/examples/trustzone/ta1/ta1.c:494 (discriminator 3)
     d36:	4b41      	ldr	r3, [pc, #260]	; (e3c <encrypt_module_key+0x178>)
     d38:	58e3      	ldr	r3, [r4, r3]
     d3a:	461a      	mov	r2, r3
     d3c:	f8d7 3114 	ldr.w	r3, [r7, #276]	; 0x114
     d40:	4413      	add	r3, r2
     d42:	781b      	ldrb	r3, [r3, #0]
     d44:	4619      	mov	r1, r3
     d46:	4b3f      	ldr	r3, [pc, #252]	; (e44 <encrypt_module_key+0x180>)
     d48:	447b      	add	r3, pc
     d4a:	4618      	mov	r0, r3
     d4c:	f003 f8a4 	bl	3e98 <printf>
/home/sepideh/Desktop/reactive-tools/examples/trustzone/ta1/ta1.c:493 (discriminator 3)
     d50:	f8d7 3114 	ldr.w	r3, [r7, #276]	; 0x114
     d54:	f103 0301 	add.w	r3, r3, #1
     d58:	f8c7 3114 	str.w	r3, [r7, #276]	; 0x114
/home/sepideh/Desktop/reactive-tools/examples/trustzone/ta1/ta1.c:493 (discriminator 1)
     d5c:	f8d7 3114 	ldr.w	r3, [r7, #276]	; 0x114
     d60:	2b0f      	cmp	r3, #15
     d62:	dde8      	ble.n	d36 <encrypt_module_key+0x72>
/home/sepideh/Desktop/reactive-tools/examples/trustzone/ta1/ta1.c:495
     d64:	f8d7 0110 	ldr.w	r0, [r7, #272]	; 0x110
     d68:	f003 fdcc 	bl	4904 <TEE_Free>
/home/sepideh/Desktop/reactive-tools/examples/trustzone/ta1/ta1.c:501
     d6c:	4b36      	ldr	r3, [pc, #216]	; (e48 <encrypt_module_key+0x184>)
     d6e:	447b      	add	r3, pc
     d70:	9300      	str	r3, [sp, #0]
     d72:	f04f 0301 	mov.w	r3, #1
     d76:	f04f 0203 	mov.w	r2, #3
     d7a:	f240 11f5 	movw	r1, #501	; 0x1f5
     d7e:	4833      	ldr	r0, [pc, #204]	; (e4c <encrypt_module_key+0x188>)
     d80:	4478      	add	r0, pc
     d82:	f001 febe 	bl	2b02 <trace_printf>
/home/sepideh/Desktop/reactive-tools/examples/trustzone/ta1/ta1.c:502
     d86:	f107 030c 	add.w	r3, r7, #12
     d8a:	f107 0210 	add.w	r2, r7, #16
     d8e:	f04f 0110 	mov.w	r1, #16
     d92:	482a      	ldr	r0, [pc, #168]	; (e3c <encrypt_module_key+0x178>)
     d94:	5820      	ldr	r0, [r4, r0]
     d96:	f7ff fe8d 	bl	ab4 <encrypt_using_public_key>
/home/sepideh/Desktop/reactive-tools/examples/trustzone/ta1/ta1.c:503
     d9a:	f107 0304 	add.w	r3, r7, #4
     d9e:	681b      	ldr	r3, [r3, #0]
     da0:	6818      	ldr	r0, [r3, #0]
     da2:	f107 030c 	add.w	r3, r7, #12
     da6:	681b      	ldr	r3, [r3, #0]
     da8:	461a      	mov	r2, r3
     daa:	f107 0310 	add.w	r3, r7, #16
     dae:	4619      	mov	r1, r3
     db0:	f010 fa98 	bl	112e4 <memcpy>
/home/sepideh/Desktop/reactive-tools/examples/trustzone/ta1/ta1.c:504
     db4:	f107 030c 	add.w	r3, r7, #12
     db8:	681b      	ldr	r3, [r3, #0]
     dba:	461a      	mov	r2, r3
     dbc:	f107 0304 	add.w	r3, r7, #4
     dc0:	681b      	ldr	r3, [r3, #0]
     dc2:	605a      	str	r2, [r3, #4]
/home/sepideh/Desktop/reactive-tools/examples/trustzone/ta1/ta1.c:506
     dc4:	f107 0310 	add.w	r3, r7, #16
     dc8:	9301      	str	r3, [sp, #4]
     dca:	4b21      	ldr	r3, [pc, #132]	; (e50 <encrypt_module_key+0x18c>)
     dcc:	447b      	add	r3, pc
     dce:	9300      	str	r3, [sp, #0]
     dd0:	f04f 0301 	mov.w	r3, #1
     dd4:	f04f 0203 	mov.w	r2, #3
     dd8:	f44f 71fd 	mov.w	r1, #506	; 0x1fa
     ddc:	481d      	ldr	r0, [pc, #116]	; (e54 <encrypt_module_key+0x190>)
     dde:	4478      	add	r0, pc
     de0:	f001 fe8f 	bl	2b02 <trace_printf>
/home/sepideh/Desktop/reactive-tools/examples/trustzone/ta1/ta1.c:507
     de4:	f107 030c 	add.w	r3, r7, #12
     de8:	681b      	ldr	r3, [r3, #0]
     dea:	9301      	str	r3, [sp, #4]
     dec:	4b1a      	ldr	r3, [pc, #104]	; (e58 <encrypt_module_key+0x194>)
     dee:	447b      	add	r3, pc
     df0:	9300      	str	r3, [sp, #0]
     df2:	f04f 0301 	mov.w	r3, #1
     df6:	f04f 0203 	mov.w	r2, #3
     dfa:	f240 11fb 	movw	r1, #507	; 0x1fb
     dfe:	4817      	ldr	r0, [pc, #92]	; (e5c <encrypt_module_key+0x198>)
     e00:	4478      	add	r0, pc
     e02:	f001 fe7e 	bl	2b02 <trace_printf>
/home/sepideh/Desktop/reactive-tools/examples/trustzone/ta1/ta1.c:508
     e06:	4b16      	ldr	r3, [pc, #88]	; (e60 <encrypt_module_key+0x19c>)
     e08:	447b      	add	r3, pc
     e0a:	9300      	str	r3, [sp, #0]
     e0c:	f04f 0301 	mov.w	r3, #1
     e10:	f04f 0203 	mov.w	r2, #3
     e14:	f44f 71fe 	mov.w	r1, #508	; 0x1fc
     e18:	4812      	ldr	r0, [pc, #72]	; (e64 <encrypt_module_key+0x1a0>)
     e1a:	4478      	add	r0, pc
     e1c:	f001 fe71 	bl	2b02 <trace_printf>
/home/sepideh/Desktop/reactive-tools/examples/trustzone/ta1/ta1.c:509
     e20:	f04f 0300 	mov.w	r3, #0
/home/sepideh/Desktop/reactive-tools/examples/trustzone/ta1/ta1.c:511 (discriminator 1)
     e24:	4618      	mov	r0, r3
     e26:	f507 778e 	add.w	r7, r7, #284	; 0x11c
     e2a:	46bd      	mov	sp, r7
     e2c:	e9dd 4700 	ldrd	r4, r7, [sp]
     e30:	b002      	add	sp, #8
     e32:	f85d fb04 	ldr.w	pc, [sp], #4
     e36:	bf00      	nop
     e38:	000153ac 	.word	0x000153ac
     e3c:	00000048 	.word	0x00000048
     e40:	00012218 	.word	0x00012218
     e44:	00011ed0 	.word	0x00011ed0
     e48:	00012206 	.word	0x00012206
     e4c:	000125a8 	.word	0x000125a8
     e50:	000121f0 	.word	0x000121f0
     e54:	0001254a 	.word	0x0001254a
     e58:	000121e6 	.word	0x000121e6
     e5c:	00012528 	.word	0x00012528
     e60:	000121e4 	.word	0x000121e4
     e64:	0001250e 	.word	0x0001250e

00000e68 <handle_output>:
handle_output():
/home/sepideh/Desktop/reactive-tools/examples/trustzone/ta1/ta1.c:515
     e68:	e96d 4504 	strd	r4, r5, [sp, #-16]!
     e6c:	e9cd 7e02 	strd	r7, lr, [sp, #8]
     e70:	b0a8      	sub	sp, #160	; 0xa0
     e72:	af04      	add	r7, sp, #16
     e74:	60f8      	str	r0, [r7, #12]
     e76:	60b9      	str	r1, [r7, #8]
     e78:	603b      	str	r3, [r7, #0]
     e7a:	4613      	mov	r3, r2
     e7c:	80fb      	strh	r3, [r7, #6]
     e7e:	f8df 444c 	ldr.w	r4, [pc, #1100]	; 12cc <handle_output+0x464>
     e82:	447c      	add	r4, pc
     e84:	466b      	mov	r3, sp
     e86:	461d      	mov	r5, r3
/home/sepideh/Desktop/reactive-tools/examples/trustzone/ta1/ta1.c:517
     e88:	f246 6362 	movw	r3, #26210	; 0x6662
     e8c:	66fb      	str	r3, [r7, #108]	; 0x6c
/home/sepideh/Desktop/reactive-tools/examples/trustzone/ta1/ta1.c:522
     e8e:	f8df 3440 	ldr.w	r3, [pc, #1088]	; 12d0 <handle_output+0x468>
     e92:	447b      	add	r3, pc
     e94:	4618      	mov	r0, r3
     e96:	f003 f833 	bl	3f00 <puts>
/home/sepideh/Desktop/reactive-tools/examples/trustzone/ta1/ta1.c:524
     e9a:	68fb      	ldr	r3, [r7, #12]
     e9c:	66bb      	str	r3, [r7, #104]	; 0x68
/home/sepideh/Desktop/reactive-tools/examples/trustzone/ta1/ta1.c:526
     e9e:	f04f 0300 	mov.w	r3, #0
     ea2:	f887 3033 	strb.w	r3, [r7, #51]	; 0x33
/home/sepideh/Desktop/reactive-tools/examples/trustzone/ta1/ta1.c:532
     ea6:	f8df 342c 	ldr.w	r3, [pc, #1068]	; 12d4 <handle_output+0x46c>
     eaa:	58e3      	ldr	r3, [r4, r3]
     eac:	681b      	ldr	r3, [r3, #0]
     eae:	f103 32ff 	add.w	r2, r3, #4294967295	; 0xffffffff
     eb2:	667a      	str	r2, [r7, #100]	; 0x64
     eb4:	ea4f 0383 	mov.w	r3, r3, lsl #2
     eb8:	f103 0307 	add.w	r3, r3, #7
     ebc:	ea4f 03d3 	mov.w	r3, r3, lsr #3
     ec0:	ea4f 03c3 	mov.w	r3, r3, lsl #3
     ec4:	ebad 0d03 	sub.w	sp, sp, r3
     ec8:	ab04      	add	r3, sp, #16
     eca:	f103 0303 	add.w	r3, r3, #3
     ece:	ea4f 0393 	mov.w	r3, r3, lsr #2
     ed2:	ea4f 0383 	mov.w	r3, r3, lsl #2
     ed6:	663b      	str	r3, [r7, #96]	; 0x60
/home/sepideh/Desktop/reactive-tools/examples/trustzone/ta1/ta1.c:533
     ed8:	6e39      	ldr	r1, [r7, #96]	; 0x60
     eda:	f107 0233 	add.w	r2, r7, #51	; 0x33
     ede:	88fb      	ldrh	r3, [r7, #6]
     ee0:	4618      	mov	r0, r3
     ee2:	f7ff f943 	bl	16c <find_connections>
/home/sepideh/Desktop/reactive-tools/examples/trustzone/ta1/ta1.c:534
     ee6:	f897 3033 	ldrb.w	r3, [r7, #51]	; 0x33
     eea:	4619      	mov	r1, r3
     eec:	6e3b      	ldr	r3, [r7, #96]	; 0x60
     eee:	681b      	ldr	r3, [r3, #0]
     ef0:	461a      	mov	r2, r3
     ef2:	4bf9      	ldr	r3, [pc, #996]	; (12d8 <handle_output+0x470>)
     ef4:	447b      	add	r3, pc
     ef6:	4618      	mov	r0, r3
     ef8:	f002 ffce 	bl	3e98 <printf>
/home/sepideh/Desktop/reactive-tools/examples/trustzone/ta1/ta1.c:535
     efc:	f897 3033 	ldrb.w	r3, [r7, #51]	; 0x33
     f00:	461a      	mov	r2, r3
     f02:	f8d7 30a0 	ldr.w	r3, [r7, #160]	; 0xa0
     f06:	601a      	str	r2, [r3, #0]
/home/sepideh/Desktop/reactive-tools/examples/trustzone/ta1/ta1.c:536
     f08:	f8d7 30a0 	ldr.w	r3, [r7, #160]	; 0xa0
     f0c:	681b      	ldr	r3, [r3, #0]
     f0e:	4619      	mov	r1, r3
     f10:	4bf2      	ldr	r3, [pc, #968]	; (12dc <handle_output+0x474>)
     f12:	447b      	add	r3, pc
     f14:	4618      	mov	r0, r3
     f16:	f002 ffbf 	bl	3e98 <printf>
/home/sepideh/Desktop/reactive-tools/examples/trustzone/ta1/ta1.c:537
     f1a:	f897 3033 	ldrb.w	r3, [r7, #51]	; 0x33
     f1e:	ea4f 0343 	mov.w	r3, r3, lsl #1
     f22:	f04f 0100 	mov.w	r1, #0
     f26:	4618      	mov	r0, r3
     f28:	f003 fca8 	bl	487c <TEE_Malloc>
     f2c:	65f8      	str	r0, [r7, #92]	; 0x5c
/home/sepideh/Desktop/reactive-tools/examples/trustzone/ta1/ta1.c:538
     f2e:	f897 3033 	ldrb.w	r3, [r7, #51]	; 0x33
     f32:	ea4f 1303 	mov.w	r3, r3, lsl #4
     f36:	f04f 0100 	mov.w	r1, #0
     f3a:	4618      	mov	r0, r3
     f3c:	f003 fc9e 	bl	487c <TEE_Malloc>
     f40:	65b8      	str	r0, [r7, #88]	; 0x58
/home/sepideh/Desktop/reactive-tools/examples/trustzone/ta1/ta1.c:539
     f42:	f897 3033 	ldrb.w	r3, [r7, #51]	; 0x33
     f46:	ea4f 1303 	mov.w	r3, r3, lsl #4
     f4a:	f04f 0100 	mov.w	r1, #0
     f4e:	4618      	mov	r0, r3
     f50:	f003 fc94 	bl	487c <TEE_Malloc>
     f54:	6578      	str	r0, [r7, #84]	; 0x54
/home/sepideh/Desktop/reactive-tools/examples/trustzone/ta1/ta1.c:541
     f56:	f04f 0300 	mov.w	r3, #0
     f5a:	67fb      	str	r3, [r7, #124]	; 0x7c
     f5c:	e135      	b.n	11ca <handle_output+0x362>
/home/sepideh/Desktop/reactive-tools/examples/trustzone/ta1/ta1.c:543
     f5e:	6e3b      	ldr	r3, [r7, #96]	; 0x60
     f60:	6ffa      	ldr	r2, [r7, #124]	; 0x7c
     f62:	f853 3022 	ldr.w	r3, [r3, r2, lsl #2]
     f66:	b29b      	uxth	r3, r3
     f68:	4618      	mov	r0, r3
     f6a:	f7ff f8bb 	bl	e4 <connections_get>
     f6e:	6538      	str	r0, [r7, #80]	; 0x50
/home/sepideh/Desktop/reactive-tools/examples/trustzone/ta1/ta1.c:544
     f70:	f04f 0300 	mov.w	r3, #0
     f74:	623b      	str	r3, [r7, #32]
     f76:	f107 0324 	add.w	r3, r7, #36	; 0x24
     f7a:	efc0 0010 	vmov.i32	d16, #0	; 0x00000000
     f7e:	edc3 0b00 	vstr	d16, [r3]
     f82:	edc3 0b01 	vstr	d16, [r3, #4]
/home/sepideh/Desktop/reactive-tools/examples/trustzone/ta1/ta1.c:545
     f86:	f04f 0310 	mov.w	r3, #16
     f8a:	64fb      	str	r3, [r7, #76]	; 0x4c
/home/sepideh/Desktop/reactive-tools/examples/trustzone/ta1/ta1.c:547
     f8c:	f04f 0300 	mov.w	r3, #0
     f90:	83bb      	strh	r3, [r7, #28]
/home/sepideh/Desktop/reactive-tools/examples/trustzone/ta1/ta1.c:548
     f92:	f04f 0301 	mov.w	r3, #1
     f96:	f8c7 3080 	str.w	r3, [r7, #128]	; 0x80
/home/sepideh/Desktop/reactive-tools/examples/trustzone/ta1/ta1.c:549
     f9a:	f04f 0300 	mov.w	r3, #0
     f9e:	f8c7 3084 	str.w	r3, [r7, #132]	; 0x84
     fa2:	e01c      	b.n	fde <handle_output+0x176>
/home/sepideh/Desktop/reactive-tools/examples/trustzone/ta1/ta1.c:550 (discriminator 3)
     fa4:	6d3b      	ldr	r3, [r7, #80]	; 0x50
     fa6:	889b      	ldrh	r3, [r3, #4]
     fa8:	461a      	mov	r2, r3
     faa:	f8d7 3080 	ldr.w	r3, [r7, #128]	; 0x80
     fae:	ea4f 03c3 	mov.w	r3, r3, lsl #3
     fb2:	fa42 f303 	asr.w	r3, r2, r3
     fb6:	b2d9      	uxtb	r1, r3
     fb8:	f107 021c 	add.w	r2, r7, #28
     fbc:	f8d7 3084 	ldr.w	r3, [r7, #132]	; 0x84
     fc0:	4413      	add	r3, r2
     fc2:	460a      	mov	r2, r1
     fc4:	701a      	strb	r2, [r3, #0]
/home/sepideh/Desktop/reactive-tools/examples/trustzone/ta1/ta1.c:552 (discriminator 3)
     fc6:	f8d7 3080 	ldr.w	r3, [r7, #128]	; 0x80
     fca:	f103 33ff 	add.w	r3, r3, #4294967295	; 0xffffffff
     fce:	f8c7 3080 	str.w	r3, [r7, #128]	; 0x80
/home/sepideh/Desktop/reactive-tools/examples/trustzone/ta1/ta1.c:549 (discriminator 3)
     fd2:	f8d7 3084 	ldr.w	r3, [r7, #132]	; 0x84
     fd6:	f103 0301 	add.w	r3, r3, #1
     fda:	f8c7 3084 	str.w	r3, [r7, #132]	; 0x84
/home/sepideh/Desktop/reactive-tools/examples/trustzone/ta1/ta1.c:549 (discriminator 1)
     fde:	f8d7 3084 	ldr.w	r3, [r7, #132]	; 0x84
     fe2:	2b01      	cmp	r3, #1
     fe4:	ddde      	ble.n	fa4 <handle_output+0x13c>
/home/sepideh/Desktop/reactive-tools/examples/trustzone/ta1/ta1.c:555
     fe6:	f04f 0300 	mov.w	r3, #0
     fea:	833b      	strh	r3, [r7, #24]
/home/sepideh/Desktop/reactive-tools/examples/trustzone/ta1/ta1.c:556
     fec:	f04f 0301 	mov.w	r3, #1
     ff0:	f8c7 3088 	str.w	r3, [r7, #136]	; 0x88
/home/sepideh/Desktop/reactive-tools/examples/trustzone/ta1/ta1.c:557
     ff4:	f04f 0300 	mov.w	r3, #0
     ff8:	f8c7 308c 	str.w	r3, [r7, #140]	; 0x8c
     ffc:	e01c      	b.n	1038 <handle_output+0x1d0>
/home/sepideh/Desktop/reactive-tools/examples/trustzone/ta1/ta1.c:558 (discriminator 3)
     ffe:	6d3b      	ldr	r3, [r7, #80]	; 0x50
    1000:	881b      	ldrh	r3, [r3, #0]
    1002:	461a      	mov	r2, r3
    1004:	f8d7 3080 	ldr.w	r3, [r7, #128]	; 0x80
    1008:	ea4f 03c3 	mov.w	r3, r3, lsl #3
    100c:	fa42 f303 	asr.w	r3, r2, r3
    1010:	b2d9      	uxtb	r1, r3
    1012:	f107 0218 	add.w	r2, r7, #24
    1016:	f8d7 308c 	ldr.w	r3, [r7, #140]	; 0x8c
    101a:	4413      	add	r3, r2
    101c:	460a      	mov	r2, r1
    101e:	701a      	strb	r2, [r3, #0]
/home/sepideh/Desktop/reactive-tools/examples/trustzone/ta1/ta1.c:559 (discriminator 3)
    1020:	f8d7 3088 	ldr.w	r3, [r7, #136]	; 0x88
    1024:	f103 33ff 	add.w	r3, r3, #4294967295	; 0xffffffff
    1028:	f8c7 3088 	str.w	r3, [r7, #136]	; 0x88
/home/sepideh/Desktop/reactive-tools/examples/trustzone/ta1/ta1.c:557 (discriminator 3)
    102c:	f8d7 308c 	ldr.w	r3, [r7, #140]	; 0x8c
    1030:	f103 0301 	add.w	r3, r3, #1
    1034:	f8c7 308c 	str.w	r3, [r7, #140]	; 0x8c
/home/sepideh/Desktop/reactive-tools/examples/trustzone/ta1/ta1.c:557 (discriminator 1)
    1038:	f8d7 308c 	ldr.w	r3, [r7, #140]	; 0x8c
    103c:	2b01      	cmp	r3, #1
    103e:	ddde      	ble.n	ffe <handle_output+0x196>
/home/sepideh/Desktop/reactive-tools/examples/trustzone/ta1/ta1.c:561
    1040:	6ffb      	ldr	r3, [r7, #124]	; 0x7c
    1042:	ea4f 0343 	mov.w	r3, r3, lsl #1
    1046:	461a      	mov	r2, r3
    1048:	6dfb      	ldr	r3, [r7, #92]	; 0x5c
    104a:	4413      	add	r3, r2
    104c:	4618      	mov	r0, r3
    104e:	f107 0318 	add.w	r3, r7, #24
    1052:	f04f 0202 	mov.w	r2, #2
    1056:	4619      	mov	r1, r3
    1058:	f010 f944 	bl	112e4 <memcpy>
/home/sepideh/Desktop/reactive-tools/examples/trustzone/ta1/ta1.c:563
    105c:	f04f 0301 	mov.w	r3, #1
    1060:	f04f 0210 	mov.w	r2, #16
    1064:	f04f 0102 	mov.w	r1, #2
    1068:	6eb8      	ldr	r0, [r7, #104]	; 0x68
    106a:	f7ff f975 	bl	358 <alloc_resources>
/home/sepideh/Desktop/reactive-tools/examples/trustzone/ta1/ta1.c:564
    106e:	6d3b      	ldr	r3, [r7, #80]	; 0x50
    1070:	f103 0306 	add.w	r3, r3, #6
    1074:	f04f 0210 	mov.w	r2, #16
    1078:	4619      	mov	r1, r3
    107a:	6eb8      	ldr	r0, [r7, #104]	; 0x68
    107c:	f7ff fa8c 	bl	598 <set_aes_key>
/home/sepideh/Desktop/reactive-tools/examples/trustzone/ta1/ta1.c:565
    1080:	f107 0220 	add.w	r2, r7, #32
    1084:	f107 011c 	add.w	r1, r7, #28
    1088:	6cfb      	ldr	r3, [r7, #76]	; 0x4c
    108a:	9300      	str	r3, [sp, #0]
    108c:	4613      	mov	r3, r2
    108e:	f04f 0202 	mov.w	r2, #2
    1092:	6eb8      	ldr	r0, [r7, #104]	; 0x68
    1094:	f7ff fb36 	bl	704 <reset_aes_iv>
/home/sepideh/Desktop/reactive-tools/examples/trustzone/ta1/ta1.c:568
    1098:	f04f 0300 	mov.w	r3, #0
    109c:	64bb      	str	r3, [r7, #72]	; 0x48
/home/sepideh/Desktop/reactive-tools/examples/trustzone/ta1/ta1.c:569
    109e:	f04f 0300 	mov.w	r3, #0
    10a2:	647b      	str	r3, [r7, #68]	; 0x44
/home/sepideh/Desktop/reactive-tools/examples/trustzone/ta1/ta1.c:570
    10a4:	f04f 0310 	mov.w	r3, #16
    10a8:	617b      	str	r3, [r7, #20]
/home/sepideh/Desktop/reactive-tools/examples/trustzone/ta1/ta1.c:572
    10aa:	f04f 0100 	mov.w	r1, #0
    10ae:	f04f 0010 	mov.w	r0, #16
    10b2:	f003 fbe3 	bl	487c <TEE_Malloc>
    10b6:	64b8      	str	r0, [r7, #72]	; 0x48
/home/sepideh/Desktop/reactive-tools/examples/trustzone/ta1/ta1.c:573
    10b8:	f04f 0100 	mov.w	r1, #0
    10bc:	f04f 0010 	mov.w	r0, #16
    10c0:	f003 fbdc 	bl	487c <TEE_Malloc>
    10c4:	6478      	str	r0, [r7, #68]	; 0x44
/home/sepideh/Desktop/reactive-tools/examples/trustzone/ta1/ta1.c:574
    10c6:	6cbb      	ldr	r3, [r7, #72]	; 0x48
    10c8:	2b00      	cmp	r3, #0
    10ca:	d073      	beq.n	11b4 <handle_output+0x34c>
/home/sepideh/Desktop/reactive-tools/examples/trustzone/ta1/ta1.c:574 (discriminator 1)
    10cc:	6c7b      	ldr	r3, [r7, #68]	; 0x44
    10ce:	2b00      	cmp	r3, #0
    10d0:	d070      	beq.n	11b4 <handle_output+0x34c>
/home/sepideh/Desktop/reactive-tools/examples/trustzone/ta1/ta1.c:577
    10d2:	68bb      	ldr	r3, [r7, #8]
    10d4:	643b      	str	r3, [r7, #64]	; 0x40
/home/sepideh/Desktop/reactive-tools/examples/trustzone/ta1/ta1.c:578
    10d6:	6ebb      	ldr	r3, [r7, #104]	; 0x68
    10d8:	68d8      	ldr	r0, [r3, #12]
    10da:	697a      	ldr	r2, [r7, #20]
    10dc:	f107 0314 	add.w	r3, r7, #20
    10e0:	9302      	str	r3, [sp, #8]
    10e2:	6c7b      	ldr	r3, [r7, #68]	; 0x44
    10e4:	9301      	str	r3, [sp, #4]
    10e6:	f107 0314 	add.w	r3, r7, #20
    10ea:	9300      	str	r3, [sp, #0]
    10ec:	6cbb      	ldr	r3, [r7, #72]	; 0x48
    10ee:	6c39      	ldr	r1, [r7, #64]	; 0x40
    10f0:	f005 fff8 	bl	70e4 <TEE_AEEncryptFinal>
    10f4:	63f8      	str	r0, [r7, #60]	; 0x3c
/home/sepideh/Desktop/reactive-tools/examples/trustzone/ta1/ta1.c:581
    10f6:	6bfb      	ldr	r3, [r7, #60]	; 0x3c
    10f8:	2b00      	cmp	r3, #0
    10fa:	d153      	bne.n	11a4 <handle_output+0x33c>
/home/sepideh/Desktop/reactive-tools/examples/trustzone/ta1/ta1.c:582
    10fc:	4b78      	ldr	r3, [pc, #480]	; (12e0 <handle_output+0x478>)
    10fe:	447b      	add	r3, pc
    1100:	4618      	mov	r0, r3
    1102:	f002 fefd 	bl	3f00 <puts>
/home/sepideh/Desktop/reactive-tools/examples/trustzone/ta1/ta1.c:583
    1106:	6cbb      	ldr	r3, [r7, #72]	; 0x48
    1108:	63bb      	str	r3, [r7, #56]	; 0x38
/home/sepideh/Desktop/reactive-tools/examples/trustzone/ta1/ta1.c:584
    110a:	6c7b      	ldr	r3, [r7, #68]	; 0x44
    110c:	637b      	str	r3, [r7, #52]	; 0x34
/home/sepideh/Desktop/reactive-tools/examples/trustzone/ta1/ta1.c:586
    110e:	f04f 0300 	mov.w	r3, #0
    1112:	67bb      	str	r3, [r7, #120]	; 0x78
    1114:	e00d      	b.n	1132 <handle_output+0x2ca>
/home/sepideh/Desktop/reactive-tools/examples/trustzone/ta1/ta1.c:587 (discriminator 3)
    1116:	6fbb      	ldr	r3, [r7, #120]	; 0x78
    1118:	6bba      	ldr	r2, [r7, #56]	; 0x38
    111a:	4413      	add	r3, r2
    111c:	781b      	ldrb	r3, [r3, #0]
    111e:	4619      	mov	r1, r3
    1120:	4b70      	ldr	r3, [pc, #448]	; (12e4 <handle_output+0x47c>)
    1122:	447b      	add	r3, pc
    1124:	4618      	mov	r0, r3
    1126:	f002 feb7 	bl	3e98 <printf>
/home/sepideh/Desktop/reactive-tools/examples/trustzone/ta1/ta1.c:586 (discriminator 3)
    112a:	6fbb      	ldr	r3, [r7, #120]	; 0x78
    112c:	f103 0301 	add.w	r3, r3, #1
    1130:	67bb      	str	r3, [r7, #120]	; 0x78
/home/sepideh/Desktop/reactive-tools/examples/trustzone/ta1/ta1.c:586 (discriminator 1)
    1132:	6fbb      	ldr	r3, [r7, #120]	; 0x78
    1134:	2b0f      	cmp	r3, #15
    1136:	ddee      	ble.n	1116 <handle_output+0x2ae>
/home/sepideh/Desktop/reactive-tools/examples/trustzone/ta1/ta1.c:589
    1138:	f04f 000a 	mov.w	r0, #10
    113c:	f002 fefc 	bl	3f38 <putchar>
/home/sepideh/Desktop/reactive-tools/examples/trustzone/ta1/ta1.c:590
    1140:	4b69      	ldr	r3, [pc, #420]	; (12e8 <handle_output+0x480>)
    1142:	447b      	add	r3, pc
    1144:	4618      	mov	r0, r3
    1146:	f002 fedb 	bl	3f00 <puts>
/home/sepideh/Desktop/reactive-tools/examples/trustzone/ta1/ta1.c:592
    114a:	f04f 0300 	mov.w	r3, #0
    114e:	677b      	str	r3, [r7, #116]	; 0x74
    1150:	e00d      	b.n	116e <handle_output+0x306>
/home/sepideh/Desktop/reactive-tools/examples/trustzone/ta1/ta1.c:593 (discriminator 3)
    1152:	6f7b      	ldr	r3, [r7, #116]	; 0x74
    1154:	6b7a      	ldr	r2, [r7, #52]	; 0x34
    1156:	4413      	add	r3, r2
    1158:	781b      	ldrb	r3, [r3, #0]
    115a:	4619      	mov	r1, r3
    115c:	4b63      	ldr	r3, [pc, #396]	; (12ec <handle_output+0x484>)
    115e:	447b      	add	r3, pc
    1160:	4618      	mov	r0, r3
    1162:	f002 fe99 	bl	3e98 <printf>
/home/sepideh/Desktop/reactive-tools/examples/trustzone/ta1/ta1.c:592 (discriminator 3)
    1166:	6f7b      	ldr	r3, [r7, #116]	; 0x74
    1168:	f103 0301 	add.w	r3, r3, #1
    116c:	677b      	str	r3, [r7, #116]	; 0x74
/home/sepideh/Desktop/reactive-tools/examples/trustzone/ta1/ta1.c:592 (discriminator 1)
    116e:	6f7b      	ldr	r3, [r7, #116]	; 0x74
    1170:	2b0f      	cmp	r3, #15
    1172:	ddee      	ble.n	1152 <handle_output+0x2ea>
/home/sepideh/Desktop/reactive-tools/examples/trustzone/ta1/ta1.c:597
    1174:	6ffb      	ldr	r3, [r7, #124]	; 0x7c
    1176:	ea4f 1303 	mov.w	r3, r3, lsl #4
    117a:	461a      	mov	r2, r3
    117c:	6dbb      	ldr	r3, [r7, #88]	; 0x58
    117e:	4413      	add	r3, r2
    1180:	f04f 0210 	mov.w	r2, #16
    1184:	6cb9      	ldr	r1, [r7, #72]	; 0x48
    1186:	4618      	mov	r0, r3
    1188:	f010 f8ac 	bl	112e4 <memcpy>
/home/sepideh/Desktop/reactive-tools/examples/trustzone/ta1/ta1.c:598
    118c:	6ffb      	ldr	r3, [r7, #124]	; 0x7c
    118e:	ea4f 1303 	mov.w	r3, r3, lsl #4
    1192:	461a      	mov	r2, r3
    1194:	6d7b      	ldr	r3, [r7, #84]	; 0x54
    1196:	4413      	add	r3, r2
    1198:	f04f 0210 	mov.w	r2, #16
    119c:	6c79      	ldr	r1, [r7, #68]	; 0x44
    119e:	4618      	mov	r0, r3
    11a0:	f010 f8a0 	bl	112e4 <memcpy>
/home/sepideh/Desktop/reactive-tools/examples/trustzone/ta1/ta1.c:601
    11a4:	6d3b      	ldr	r3, [r7, #80]	; 0x50
    11a6:	889b      	ldrh	r3, [r3, #4]
    11a8:	f103 0301 	add.w	r3, r3, #1
    11ac:	b29a      	uxth	r2, r3
    11ae:	6d3b      	ldr	r3, [r7, #80]	; 0x50
    11b0:	809a      	strh	r2, [r3, #4]
    11b2:	e000      	b.n	11b6 <handle_output+0x34e>
/home/sepideh/Desktop/reactive-tools/examples/trustzone/ta1/ta1.c:575
    11b4:	bf00      	nop
/home/sepideh/Desktop/reactive-tools/examples/trustzone/ta1/ta1.c:604 (discriminator 2)
    11b6:	6cb8      	ldr	r0, [r7, #72]	; 0x48
    11b8:	f003 fba4 	bl	4904 <TEE_Free>
/home/sepideh/Desktop/reactive-tools/examples/trustzone/ta1/ta1.c:605 (discriminator 2)
    11bc:	6c78      	ldr	r0, [r7, #68]	; 0x44
    11be:	f003 fba1 	bl	4904 <TEE_Free>
/home/sepideh/Desktop/reactive-tools/examples/trustzone/ta1/ta1.c:541 (discriminator 2)
    11c2:	6ffb      	ldr	r3, [r7, #124]	; 0x7c
    11c4:	f103 0301 	add.w	r3, r3, #1
    11c8:	67fb      	str	r3, [r7, #124]	; 0x7c
/home/sepideh/Desktop/reactive-tools/examples/trustzone/ta1/ta1.c:541 (discriminator 1)
    11ca:	f897 3033 	ldrb.w	r3, [r7, #51]	; 0x33
    11ce:	461a      	mov	r2, r3
    11d0:	6ffb      	ldr	r3, [r7, #124]	; 0x7c
    11d2:	4293      	cmp	r3, r2
    11d4:	f6ff aec3 	blt.w	f5e <handle_output+0xf6>
/home/sepideh/Desktop/reactive-tools/examples/trustzone/ta1/ta1.c:609
    11d8:	f897 3033 	ldrb.w	r3, [r7, #51]	; 0x33
    11dc:	ea4f 0243 	mov.w	r2, r3, lsl #1
    11e0:	f8d7 30a0 	ldr.w	r3, [r7, #160]	; 0xa0
    11e4:	f103 0308 	add.w	r3, r3, #8
    11e8:	605a      	str	r2, [r3, #4]
/home/sepideh/Desktop/reactive-tools/examples/trustzone/ta1/ta1.c:610
    11ea:	f8d7 30a0 	ldr.w	r3, [r7, #160]	; 0xa0
    11ee:	f103 0308 	add.w	r3, r3, #8
    11f2:	6818      	ldr	r0, [r3, #0]
    11f4:	f8d7 30a0 	ldr.w	r3, [r7, #160]	; 0xa0
    11f8:	f103 0308 	add.w	r3, r3, #8
    11fc:	685b      	ldr	r3, [r3, #4]
    11fe:	461a      	mov	r2, r3
    1200:	6df9      	ldr	r1, [r7, #92]	; 0x5c
    1202:	f003 fa57 	bl	46b4 <TEE_MemMove>
/home/sepideh/Desktop/reactive-tools/examples/trustzone/ta1/ta1.c:611
    1206:	f897 3033 	ldrb.w	r3, [r7, #51]	; 0x33
    120a:	ea4f 1203 	mov.w	r2, r3, lsl #4
    120e:	f8d7 30a0 	ldr.w	r3, [r7, #160]	; 0xa0
    1212:	f103 0310 	add.w	r3, r3, #16
    1216:	605a      	str	r2, [r3, #4]
/home/sepideh/Desktop/reactive-tools/examples/trustzone/ta1/ta1.c:612
    1218:	f8d7 30a0 	ldr.w	r3, [r7, #160]	; 0xa0
    121c:	f103 0310 	add.w	r3, r3, #16
    1220:	6818      	ldr	r0, [r3, #0]
    1222:	f8d7 30a0 	ldr.w	r3, [r7, #160]	; 0xa0
    1226:	f103 0310 	add.w	r3, r3, #16
    122a:	685b      	ldr	r3, [r3, #4]
    122c:	461a      	mov	r2, r3
    122e:	6db9      	ldr	r1, [r7, #88]	; 0x58
    1230:	f003 fa40 	bl	46b4 <TEE_MemMove>
/home/sepideh/Desktop/reactive-tools/examples/trustzone/ta1/ta1.c:613
    1234:	f897 3033 	ldrb.w	r3, [r7, #51]	; 0x33
    1238:	ea4f 1203 	mov.w	r2, r3, lsl #4
    123c:	f8d7 30a0 	ldr.w	r3, [r7, #160]	; 0xa0
    1240:	f103 0318 	add.w	r3, r3, #24
    1244:	605a      	str	r2, [r3, #4]
/home/sepideh/Desktop/reactive-tools/examples/trustzone/ta1/ta1.c:614
    1246:	f8d7 30a0 	ldr.w	r3, [r7, #160]	; 0xa0
    124a:	f103 0318 	add.w	r3, r3, #24
    124e:	6818      	ldr	r0, [r3, #0]
    1250:	f8d7 30a0 	ldr.w	r3, [r7, #160]	; 0xa0
    1254:	f103 0318 	add.w	r3, r3, #24
    1258:	685b      	ldr	r3, [r3, #4]
    125a:	461a      	mov	r2, r3
    125c:	6d79      	ldr	r1, [r7, #84]	; 0x54
    125e:	f003 fa29 	bl	46b4 <TEE_MemMove>
/home/sepideh/Desktop/reactive-tools/examples/trustzone/ta1/ta1.c:616
    1262:	4b23      	ldr	r3, [pc, #140]	; (12f0 <handle_output+0x488>)
    1264:	447b      	add	r3, pc
    1266:	4618      	mov	r0, r3
    1268:	f002 fe4a 	bl	3f00 <puts>
/home/sepideh/Desktop/reactive-tools/examples/trustzone/ta1/ta1.c:617
    126c:	f04f 0300 	mov.w	r3, #0
    1270:	673b      	str	r3, [r7, #112]	; 0x70
    1272:	e011      	b.n	1298 <handle_output+0x430>
/home/sepideh/Desktop/reactive-tools/examples/trustzone/ta1/ta1.c:618 (discriminator 3)
    1274:	f8d7 30a0 	ldr.w	r3, [r7, #160]	; 0xa0
    1278:	f103 0310 	add.w	r3, r3, #16
    127c:	681a      	ldr	r2, [r3, #0]
    127e:	6f3b      	ldr	r3, [r7, #112]	; 0x70
    1280:	4413      	add	r3, r2
    1282:	781b      	ldrb	r3, [r3, #0]
    1284:	4619      	mov	r1, r3
    1286:	4b1b      	ldr	r3, [pc, #108]	; (12f4 <handle_output+0x48c>)
    1288:	447b      	add	r3, pc
    128a:	4618      	mov	r0, r3
    128c:	f002 fe04 	bl	3e98 <printf>
/home/sepideh/Desktop/reactive-tools/examples/trustzone/ta1/ta1.c:617 (discriminator 3)
    1290:	6f3b      	ldr	r3, [r7, #112]	; 0x70
    1292:	f103 0301 	add.w	r3, r3, #1
    1296:	673b      	str	r3, [r7, #112]	; 0x70
/home/sepideh/Desktop/reactive-tools/examples/trustzone/ta1/ta1.c:617 (discriminator 1)
    1298:	f8d7 30a0 	ldr.w	r3, [r7, #160]	; 0xa0
    129c:	f103 0308 	add.w	r3, r3, #8
    12a0:	685a      	ldr	r2, [r3, #4]
    12a2:	6f3b      	ldr	r3, [r7, #112]	; 0x70
    12a4:	429a      	cmp	r2, r3
    12a6:	d8e5      	bhi.n	1274 <handle_output+0x40c>
/home/sepideh/Desktop/reactive-tools/examples/trustzone/ta1/ta1.c:620
    12a8:	6df8      	ldr	r0, [r7, #92]	; 0x5c
    12aa:	f003 fb2b 	bl	4904 <TEE_Free>
/home/sepideh/Desktop/reactive-tools/examples/trustzone/ta1/ta1.c:621
    12ae:	6db8      	ldr	r0, [r7, #88]	; 0x58
    12b0:	f003 fb28 	bl	4904 <TEE_Free>
/home/sepideh/Desktop/reactive-tools/examples/trustzone/ta1/ta1.c:622
    12b4:	6d78      	ldr	r0, [r7, #84]	; 0x54
    12b6:	f003 fb25 	bl	4904 <TEE_Free>
    12ba:	46ad      	mov	sp, r5
/home/sepideh/Desktop/reactive-tools/examples/trustzone/ta1/ta1.c:623
    12bc:	bf00      	nop
    12be:	f107 0790 	add.w	r7, r7, #144	; 0x90
    12c2:	46bd      	mov	sp, r7
    12c4:	e9dd 4500 	ldrd	r4, r5, [sp]
    12c8:	b002      	add	sp, #8
    12ca:	bd80      	pop	{r7, pc}
    12cc:	00015202 	.word	0x00015202
    12d0:	0001219e 	.word	0x0001219e
    12d4:	00000014 	.word	0x00000014
    12d8:	00012170 	.word	0x00012170
    12dc:	00012176 	.word	0x00012176
    12e0:	00011f9e 	.word	0x00011f9e
    12e4:	00011af6 	.word	0x00011af6
    12e8:	00011f72 	.word	0x00011f72
    12ec:	00011aba 	.word	0x00011aba
    12f0:	00011e68 	.word	0x00011e68
    12f4:	00011e50 	.word	0x00011e50

000012f8 <output>:
output():
/home/sepideh/Desktop/reactive-tools/examples/trustzone/ta1/ta1.c:625
    12f8:	e96d 7e02 	strd	r7, lr, [sp, #-8]!
    12fc:	b08a      	sub	sp, #40	; 0x28
    12fe:	af02      	add	r7, sp, #8
    1300:	60f8      	str	r0, [r7, #12]
    1302:	60b9      	str	r1, [r7, #8]
    1304:	607a      	str	r2, [r7, #4]
    1306:	603b      	str	r3, [r7, #0]
/home/sepideh/Desktop/reactive-tools/examples/trustzone/ta1/ta1.c:627
    1308:	f246 6362 	movw	r3, #26210	; 0x6662
    130c:	61fb      	str	r3, [r7, #28]
/home/sepideh/Desktop/reactive-tools/examples/trustzone/ta1/ta1.c:631
    130e:	4b0b      	ldr	r3, [pc, #44]	; (133c <output+0x44>)
    1310:	447b      	add	r3, pc
    1312:	4618      	mov	r0, r3
    1314:	f002 fdf4 	bl	3f00 <puts>
/home/sepideh/Desktop/reactive-tools/examples/trustzone/ta1/ta1.c:633
    1318:	68fb      	ldr	r3, [r7, #12]
    131a:	61bb      	str	r3, [r7, #24]
/home/sepideh/Desktop/reactive-tools/examples/trustzone/ta1/ta1.c:634
    131c:	f04f 0306 	mov.w	r3, #6
    1320:	82fb      	strh	r3, [r7, #22]
/home/sepideh/Desktop/reactive-tools/examples/trustzone/ta1/ta1.c:635
    1322:	8afa      	ldrh	r2, [r7, #22]
    1324:	683b      	ldr	r3, [r7, #0]
    1326:	9300      	str	r3, [sp, #0]
    1328:	687b      	ldr	r3, [r7, #4]
    132a:	68b9      	ldr	r1, [r7, #8]
    132c:	69b8      	ldr	r0, [r7, #24]
    132e:	f7ff fd9b 	bl	e68 <handle_output>
/home/sepideh/Desktop/reactive-tools/examples/trustzone/ta1/ta1.c:636
    1332:	bf00      	nop
    1334:	f107 0720 	add.w	r7, r7, #32
    1338:	46bd      	mov	sp, r7
    133a:	bd80      	pop	{r7, pc}
    133c:	00011dd0 	.word	0x00011dd0

00001340 <entry>:
entry():
/home/sepideh/Desktop/reactive-tools/examples/trustzone/ta1/ta1.c:639
    1340:	e96d 7e02 	strd	r7, lr, [sp, #-8]!
    1344:	b08a      	sub	sp, #40	; 0x28
    1346:	af00      	add	r7, sp, #0
    1348:	60f8      	str	r0, [r7, #12]
    134a:	60b9      	str	r1, [r7, #8]
    134c:	607a      	str	r2, [r7, #4]
/home/sepideh/Desktop/reactive-tools/examples/trustzone/ta1/ta1.c:641
    134e:	f246 6362 	movw	r3, #26210	; 0x6662
    1352:	627b      	str	r3, [r7, #36]	; 0x24
/home/sepideh/Desktop/reactive-tools/examples/trustzone/ta1/ta1.c:647
    1354:	68fb      	ldr	r3, [r7, #12]
    1356:	623b      	str	r3, [r7, #32]
/home/sepideh/Desktop/reactive-tools/examples/trustzone/ta1/ta1.c:648
    1358:	4b10      	ldr	r3, [pc, #64]	; (139c <entry+0x5c>)
    135a:	447b      	add	r3, pc
    135c:	4618      	mov	r0, r3
    135e:	f002 fdcf 	bl	3f00 <puts>
/home/sepideh/Desktop/reactive-tools/examples/trustzone/ta1/ta1.c:649
    1362:	f04f 0300 	mov.w	r3, #0
    1366:	613b      	str	r3, [r7, #16]
    1368:	f107 0314 	add.w	r3, r7, #20
    136c:	efc0 0010 	vmov.i32	d16, #0	; 0x00000000
    1370:	edc3 0b00 	vstr	d16, [r3]
    1374:	edc3 0b01 	vstr	d16, [r3, #4]
/home/sepideh/Desktop/reactive-tools/examples/trustzone/ta1/ta1.c:650
    1378:	f04f 0301 	mov.w	r3, #1
    137c:	743b      	strb	r3, [r7, #16]
/home/sepideh/Desktop/reactive-tools/examples/trustzone/ta1/ta1.c:651
    137e:	f107 0110 	add.w	r1, r7, #16
    1382:	687b      	ldr	r3, [r7, #4]
    1384:	68ba      	ldr	r2, [r7, #8]
    1386:	6a38      	ldr	r0, [r7, #32]
    1388:	f7ff ffb6 	bl	12f8 <output>
/home/sepideh/Desktop/reactive-tools/examples/trustzone/ta1/ta1.c:652
    138c:	f04f 0300 	mov.w	r3, #0
/home/sepideh/Desktop/reactive-tools/examples/trustzone/ta1/ta1.c:653
    1390:	4618      	mov	r0, r3
    1392:	f107 0728 	add.w	r7, r7, #40	; 0x28
    1396:	46bd      	mov	sp, r7
    1398:	bd80      	pop	{r7, pc}
    139a:	bf00      	nop
    139c:	00011db2 	.word	0x00011db2

000013a0 <TA_CreateEntryPoint>:
TA_CreateEntryPoint():
/home/sepideh/Desktop/reactive-tools/examples/trustzone/ta1/ta1.c:655
    13a0:	e96d 7e02 	strd	r7, lr, [sp, #-8]!
    13a4:	b082      	sub	sp, #8
    13a6:	af02      	add	r7, sp, #8
/home/sepideh/Desktop/reactive-tools/examples/trustzone/ta1/ta1.c:656
    13a8:	4b08      	ldr	r3, [pc, #32]	; (13cc <TA_CreateEntryPoint+0x2c>)
    13aa:	447b      	add	r3, pc
    13ac:	9300      	str	r3, [sp, #0]
    13ae:	f04f 0301 	mov.w	r3, #1
    13b2:	f04f 0203 	mov.w	r2, #3
    13b6:	f44f 7124 	mov.w	r1, #656	; 0x290
    13ba:	4805      	ldr	r0, [pc, #20]	; (13d0 <TA_CreateEntryPoint+0x30>)
    13bc:	4478      	add	r0, pc
    13be:	f001 fba0 	bl	2b02 <trace_printf>
/home/sepideh/Desktop/reactive-tools/examples/trustzone/ta1/ta1.c:657
    13c2:	f04f 0300 	mov.w	r3, #0
/home/sepideh/Desktop/reactive-tools/examples/trustzone/ta1/ta1.c:658
    13c6:	4618      	mov	r0, r3
    13c8:	46bd      	mov	sp, r7
    13ca:	bd80      	pop	{r7, pc}
    13cc:	00011da6 	.word	0x00011da6
    13d0:	00011f80 	.word	0x00011f80

000013d4 <TA_DestroyEntryPoint>:
TA_DestroyEntryPoint():
/home/sepideh/Desktop/reactive-tools/examples/trustzone/ta1/ta1.c:661
    13d4:	e96d 7e02 	strd	r7, lr, [sp, #-8]!
    13d8:	b082      	sub	sp, #8
    13da:	af02      	add	r7, sp, #8
/home/sepideh/Desktop/reactive-tools/examples/trustzone/ta1/ta1.c:662
    13dc:	4b07      	ldr	r3, [pc, #28]	; (13fc <TA_DestroyEntryPoint+0x28>)
    13de:	447b      	add	r3, pc
    13e0:	9300      	str	r3, [sp, #0]
    13e2:	f04f 0301 	mov.w	r3, #1
    13e6:	f04f 0203 	mov.w	r2, #3
    13ea:	f240 2196 	movw	r1, #662	; 0x296
    13ee:	4804      	ldr	r0, [pc, #16]	; (1400 <TA_DestroyEntryPoint+0x2c>)
    13f0:	4478      	add	r0, pc
    13f2:	f001 fb86 	bl	2b02 <trace_printf>
/home/sepideh/Desktop/reactive-tools/examples/trustzone/ta1/ta1.c:663
    13f6:	bf00      	nop
    13f8:	46bd      	mov	sp, r7
    13fa:	bd80      	pop	{r7, pc}
    13fc:	00011daa 	.word	0x00011daa
    1400:	00011f60 	.word	0x00011f60

00001404 <TA_OpenSessionEntryPoint>:
TA_OpenSessionEntryPoint():
/home/sepideh/Desktop/reactive-tools/examples/trustzone/ta1/ta1.c:669
    1404:	e96d 7e02 	strd	r7, lr, [sp, #-8]!
    1408:	b088      	sub	sp, #32
    140a:	af02      	add	r7, sp, #8
    140c:	60f8      	str	r0, [r7, #12]
    140e:	60b9      	str	r1, [r7, #8]
    1410:	607a      	str	r2, [r7, #4]
/home/sepideh/Desktop/reactive-tools/examples/trustzone/ta1/ta1.c:670
    1412:	4b1f      	ldr	r3, [pc, #124]	; (1490 <TA_OpenSessionEntryPoint+0x8c>)
    1414:	447b      	add	r3, pc
    1416:	9300      	str	r3, [sp, #0]
    1418:	f04f 0301 	mov.w	r3, #1
    141c:	f04f 0203 	mov.w	r2, #3
    1420:	f240 219e 	movw	r1, #670	; 0x29e
    1424:	481b      	ldr	r0, [pc, #108]	; (1494 <TA_OpenSessionEntryPoint+0x90>)
    1426:	4478      	add	r0, pc
    1428:	f001 fb6b 	bl	2b02 <trace_printf>
/home/sepideh/Desktop/reactive-tools/examples/trustzone/ta1/ta1.c:673
    142c:	f04f 0100 	mov.w	r1, #0
    1430:	f04f 0014 	mov.w	r0, #20
    1434:	f003 fa22 	bl	487c <TEE_Malloc>
    1438:	6178      	str	r0, [r7, #20]
/home/sepideh/Desktop/reactive-tools/examples/trustzone/ta1/ta1.c:674
    143a:	697b      	ldr	r3, [r7, #20]
    143c:	2b00      	cmp	r3, #0
    143e:	d104      	bne.n	144a <TA_OpenSessionEntryPoint+0x46>
/home/sepideh/Desktop/reactive-tools/examples/trustzone/ta1/ta1.c:675
    1440:	f04f 030c 	mov.w	r3, #12
    1444:	f6cf 73ff 	movt	r3, #65535	; 0xffff
    1448:	e01c      	b.n	1484 <TA_OpenSessionEntryPoint+0x80>
/home/sepideh/Desktop/reactive-tools/examples/trustzone/ta1/ta1.c:677
    144a:	697b      	ldr	r3, [r7, #20]
    144c:	f04f 0200 	mov.w	r2, #0
    1450:	611a      	str	r2, [r3, #16]
/home/sepideh/Desktop/reactive-tools/examples/trustzone/ta1/ta1.c:678
    1452:	697b      	ldr	r3, [r7, #20]
    1454:	f04f 0200 	mov.w	r2, #0
    1458:	60da      	str	r2, [r3, #12]
/home/sepideh/Desktop/reactive-tools/examples/trustzone/ta1/ta1.c:680
    145a:	687b      	ldr	r3, [r7, #4]
    145c:	697a      	ldr	r2, [r7, #20]
    145e:	601a      	str	r2, [r3, #0]
/home/sepideh/Desktop/reactive-tools/examples/trustzone/ta1/ta1.c:681
    1460:	687b      	ldr	r3, [r7, #4]
    1462:	681b      	ldr	r3, [r3, #0]
    1464:	9301      	str	r3, [sp, #4]
    1466:	4b0c      	ldr	r3, [pc, #48]	; (1498 <TA_OpenSessionEntryPoint+0x94>)
    1468:	447b      	add	r3, pc
    146a:	9300      	str	r3, [sp, #0]
    146c:	f04f 0301 	mov.w	r3, #1
    1470:	f04f 0203 	mov.w	r2, #3
    1474:	f240 21a9 	movw	r1, #681	; 0x2a9
    1478:	4808      	ldr	r0, [pc, #32]	; (149c <TA_OpenSessionEntryPoint+0x98>)
    147a:	4478      	add	r0, pc
    147c:	f001 fb41 	bl	2b02 <trace_printf>
/home/sepideh/Desktop/reactive-tools/examples/trustzone/ta1/ta1.c:683
    1480:	f04f 0300 	mov.w	r3, #0
/home/sepideh/Desktop/reactive-tools/examples/trustzone/ta1/ta1.c:684
    1484:	4618      	mov	r0, r3
    1486:	f107 0718 	add.w	r7, r7, #24
    148a:	46bd      	mov	sp, r7
    148c:	bd80      	pop	{r7, pc}
    148e:	bf00      	nop
    1490:	00011dac 	.word	0x00011dac
    1494:	00011f42 	.word	0x00011f42
    1498:	00011d90 	.word	0x00011d90
    149c:	00011eee 	.word	0x00011eee

000014a0 <TA_CloseSessionEntryPoint>:
TA_CloseSessionEntryPoint():
/home/sepideh/Desktop/reactive-tools/examples/trustzone/ta1/ta1.c:688
    14a0:	e96d 7e02 	strd	r7, lr, [sp, #-8]!
    14a4:	b086      	sub	sp, #24
    14a6:	af02      	add	r7, sp, #8
    14a8:	6078      	str	r0, [r7, #4]
/home/sepideh/Desktop/reactive-tools/examples/trustzone/ta1/ta1.c:689
    14aa:	4b1c      	ldr	r3, [pc, #112]	; (151c <TA_CloseSessionEntryPoint+0x7c>)
    14ac:	447b      	add	r3, pc
    14ae:	9300      	str	r3, [sp, #0]
    14b0:	f04f 0301 	mov.w	r3, #1
    14b4:	f04f 0203 	mov.w	r2, #3
    14b8:	f240 21b1 	movw	r1, #689	; 0x2b1
    14bc:	4818      	ldr	r0, [pc, #96]	; (1520 <TA_CloseSessionEntryPoint+0x80>)
    14be:	4478      	add	r0, pc
    14c0:	f001 fb1f 	bl	2b02 <trace_printf>
/home/sepideh/Desktop/reactive-tools/examples/trustzone/ta1/ta1.c:694
    14c4:	687b      	ldr	r3, [r7, #4]
    14c6:	9301      	str	r3, [sp, #4]
    14c8:	4b16      	ldr	r3, [pc, #88]	; (1524 <TA_CloseSessionEntryPoint+0x84>)
    14ca:	447b      	add	r3, pc
    14cc:	9300      	str	r3, [sp, #0]
    14ce:	f04f 0301 	mov.w	r3, #1
    14d2:	f04f 0203 	mov.w	r2, #3
    14d6:	f240 21b6 	movw	r1, #694	; 0x2b6
    14da:	4813      	ldr	r0, [pc, #76]	; (1528 <TA_CloseSessionEntryPoint+0x88>)
    14dc:	4478      	add	r0, pc
    14de:	f001 fb10 	bl	2b02 <trace_printf>
/home/sepideh/Desktop/reactive-tools/examples/trustzone/ta1/ta1.c:695
    14e2:	687b      	ldr	r3, [r7, #4]
    14e4:	60fb      	str	r3, [r7, #12]
/home/sepideh/Desktop/reactive-tools/examples/trustzone/ta1/ta1.c:698
    14e6:	68fb      	ldr	r3, [r7, #12]
    14e8:	691b      	ldr	r3, [r3, #16]
    14ea:	2b00      	cmp	r3, #0
    14ec:	d004      	beq.n	14f8 <TA_CloseSessionEntryPoint+0x58>
/home/sepideh/Desktop/reactive-tools/examples/trustzone/ta1/ta1.c:699
    14ee:	68fb      	ldr	r3, [r7, #12]
    14f0:	691b      	ldr	r3, [r3, #16]
    14f2:	4618      	mov	r0, r3
    14f4:	f010 fcab 	bl	11e4e <TEE_FreeTransientObject>
/home/sepideh/Desktop/reactive-tools/examples/trustzone/ta1/ta1.c:700
    14f8:	68fb      	ldr	r3, [r7, #12]
    14fa:	68db      	ldr	r3, [r3, #12]
    14fc:	2b00      	cmp	r3, #0
    14fe:	d004      	beq.n	150a <TA_CloseSessionEntryPoint+0x6a>
/home/sepideh/Desktop/reactive-tools/examples/trustzone/ta1/ta1.c:701
    1500:	68fb      	ldr	r3, [r7, #12]
    1502:	68db      	ldr	r3, [r3, #12]
    1504:	4618      	mov	r0, r3
    1506:	f004 faa1 	bl	5a4c <TEE_FreeOperation>
/home/sepideh/Desktop/reactive-tools/examples/trustzone/ta1/ta1.c:702
    150a:	68f8      	ldr	r0, [r7, #12]
    150c:	f003 f9fa 	bl	4904 <TEE_Free>
/home/sepideh/Desktop/reactive-tools/examples/trustzone/ta1/ta1.c:703
    1510:	bf00      	nop
    1512:	f107 0710 	add.w	r7, r7, #16
    1516:	46bd      	mov	sp, r7
    1518:	bd80      	pop	{r7, pc}
    151a:	bf00      	nop
    151c:	00011d68 	.word	0x00011d68
    1520:	00011ec6 	.word	0x00011ec6
    1524:	00011d82 	.word	0x00011d82
    1528:	00011ea8 	.word	0x00011ea8

0000152c <TA_InvokeCommandEntryPoint>:
TA_InvokeCommandEntryPoint():
/home/sepideh/Desktop/reactive-tools/examples/trustzone/ta1/ta1.c:708
    152c:	e96d 7e02 	strd	r7, lr, [sp, #-8]!
    1530:	b086      	sub	sp, #24
    1532:	af02      	add	r7, sp, #8
    1534:	60f8      	str	r0, [r7, #12]
    1536:	60b9      	str	r1, [r7, #8]
    1538:	607a      	str	r2, [r7, #4]
    153a:	603b      	str	r3, [r7, #0]
/home/sepideh/Desktop/reactive-tools/examples/trustzone/ta1/ta1.c:709
    153c:	4b21      	ldr	r3, [pc, #132]	; (15c4 <TA_InvokeCommandEntryPoint+0x98>)
    153e:	447b      	add	r3, pc
    1540:	4618      	mov	r0, r3
    1542:	f002 fcdd 	bl	3f00 <puts>
    1546:	68bb      	ldr	r3, [r7, #8]
    1548:	2b03      	cmp	r3, #3
    154a:	d823      	bhi.n	1594 <TA_InvokeCommandEntryPoint+0x68>
    154c:	a202      	add	r2, pc, #8	; (adr r2, 1558 <TA_InvokeCommandEntryPoint+0x2c>)
    154e:	f852 3023 	ldr.w	r3, [r2, r3, lsl #2]
    1552:	441a      	add	r2, r3
    1554:	4710      	bx	r2
    1556:	bf00      	nop
    1558:	00000011 	.word	0x00000011
    155c:	0000001b 	.word	0x0000001b
    1560:	00000029 	.word	0x00000029
    1564:	0000002f 	.word	0x0000002f
/home/sepideh/Desktop/reactive-tools/examples/trustzone/ta1/ta1.c:712
    1568:	6838      	ldr	r0, [r7, #0]
    156a:	f7ff fbab 	bl	cc4 <encrypt_module_key>
    156e:	4603      	mov	r3, r0
    1570:	e023      	b.n	15ba <TA_InvokeCommandEntryPoint+0x8e>
/home/sepideh/Desktop/reactive-tools/examples/trustzone/ta1/ta1.c:714
    1572:	683a      	ldr	r2, [r7, #0]
    1574:	6879      	ldr	r1, [r7, #4]
    1576:	68f8      	ldr	r0, [r7, #12]
    1578:	f7ff f94c 	bl	814 <set_key>
    157c:	4603      	mov	r3, r0
    157e:	e01c      	b.n	15ba <TA_InvokeCommandEntryPoint+0x8e>
/home/sepideh/Desktop/reactive-tools/examples/trustzone/ta1/ta1.c:716
    1580:	f04f 0300 	mov.w	r3, #0
    1584:	e019      	b.n	15ba <TA_InvokeCommandEntryPoint+0x8e>
/home/sepideh/Desktop/reactive-tools/examples/trustzone/ta1/ta1.c:718
    1586:	683a      	ldr	r2, [r7, #0]
    1588:	6879      	ldr	r1, [r7, #4]
    158a:	68f8      	ldr	r0, [r7, #12]
    158c:	f7ff fed8 	bl	1340 <entry>
    1590:	4603      	mov	r3, r0
    1592:	e012      	b.n	15ba <TA_InvokeCommandEntryPoint+0x8e>
/home/sepideh/Desktop/reactive-tools/examples/trustzone/ta1/ta1.c:720
    1594:	68bb      	ldr	r3, [r7, #8]
    1596:	9301      	str	r3, [sp, #4]
    1598:	4b0b      	ldr	r3, [pc, #44]	; (15c8 <TA_InvokeCommandEntryPoint+0x9c>)
    159a:	447b      	add	r3, pc
    159c:	9300      	str	r3, [sp, #0]
    159e:	f04f 0301 	mov.w	r3, #1
    15a2:	f04f 0201 	mov.w	r2, #1
    15a6:	f44f 7134 	mov.w	r1, #720	; 0x2d0
    15aa:	4808      	ldr	r0, [pc, #32]	; (15cc <TA_InvokeCommandEntryPoint+0xa0>)
    15ac:	4478      	add	r0, pc
    15ae:	f001 faa8 	bl	2b02 <trace_printf>
/home/sepideh/Desktop/reactive-tools/examples/trustzone/ta1/ta1.c:721
    15b2:	f04f 030a 	mov.w	r3, #10
    15b6:	f6cf 73ff 	movt	r3, #65535	; 0xffff
/home/sepideh/Desktop/reactive-tools/examples/trustzone/ta1/ta1.c:723
    15ba:	4618      	mov	r0, r3
    15bc:	f107 0710 	add.w	r7, r7, #16
    15c0:	46bd      	mov	sp, r7
    15c2:	bd80      	pop	{r7, pc}
    15c4:	00011d2a 	.word	0x00011d2a
    15c8:	00011d06 	.word	0x00011d06
    15cc:	00011df4 	.word	0x00011df4

000015d0 <__ta_entry>:
__ta_entry():
/home/sepideh/optee-qemu/optee_os/out/arm/export-ta_arm32/src/ta_entry_a32.S:20
    15d0:	fa003f35 	blx	112ac <__ta_entry_c>

000015d4 <tag_asan_free>:
tag_asan_free():
/home/sepideh/optee-qemu/optee_os/lib/libutils/isoc/bget_malloc.c:122
    15d4:	f84d 7d04 	str.w	r7, [sp, #-4]!
    15d8:	b083      	sub	sp, #12
    15da:	af00      	add	r7, sp, #0
    15dc:	6078      	str	r0, [r7, #4]
    15de:	6039      	str	r1, [r7, #0]
/home/sepideh/optee-qemu/optee_os/lib/libutils/isoc/bget_malloc.c:123
    15e0:	bf00      	nop
    15e2:	f107 070c 	add.w	r7, r7, #12
    15e6:	46bd      	mov	sp, r7
    15e8:	f85d 7b04 	ldr.w	r7, [sp], #4
    15ec:	4770      	bx	lr

000015ee <tag_asan_alloced>:
tag_asan_alloced():
/home/sepideh/optee-qemu/optee_os/lib/libutils/isoc/bget_malloc.c:126
    15ee:	f84d 7d04 	str.w	r7, [sp, #-4]!
    15f2:	b083      	sub	sp, #12
    15f4:	af00      	add	r7, sp, #0
    15f6:	6078      	str	r0, [r7, #4]
    15f8:	6039      	str	r1, [r7, #0]
/home/sepideh/optee-qemu/optee_os/lib/libutils/isoc/bget_malloc.c:127
    15fa:	bf00      	nop
    15fc:	f107 070c 	add.w	r7, r7, #12
    1600:	46bd      	mov	sp, r7
    1602:	f85d 7b04 	ldr.w	r7, [sp], #4
    1606:	4770      	bx	lr

00001608 <memset_unchecked>:
memset_unchecked():
/home/sepideh/optee-qemu/optee_os/lib/libutils/isoc/bget_malloc.c:130
    1608:	e96d 7e02 	strd	r7, lr, [sp, #-8]!
    160c:	b084      	sub	sp, #16
    160e:	af00      	add	r7, sp, #0
    1610:	60f8      	str	r0, [r7, #12]
    1612:	60b9      	str	r1, [r7, #8]
    1614:	607a      	str	r2, [r7, #4]
/home/sepideh/optee-qemu/optee_os/lib/libutils/isoc/bget_malloc.c:131
    1616:	687a      	ldr	r2, [r7, #4]
    1618:	68b9      	ldr	r1, [r7, #8]
    161a:	68f8      	ldr	r0, [r7, #12]
    161c:	f00f fedb 	bl	113d6 <memset>
    1620:	4603      	mov	r3, r0
/home/sepideh/optee-qemu/optee_os/lib/libutils/isoc/bget_malloc.c:132
    1622:	4618      	mov	r0, r3
    1624:	f107 0710 	add.w	r7, r7, #16
    1628:	46bd      	mov	sp, r7
    162a:	bd80      	pop	{r7, pc}

0000162c <memcpy_unchecked>:
memcpy_unchecked():
/home/sepideh/optee-qemu/optee_os/lib/libutils/isoc/bget_malloc.c:136
    162c:	e96d 7e02 	strd	r7, lr, [sp, #-8]!
    1630:	b084      	sub	sp, #16
    1632:	af00      	add	r7, sp, #0
    1634:	60f8      	str	r0, [r7, #12]
    1636:	60b9      	str	r1, [r7, #8]
    1638:	607a      	str	r2, [r7, #4]
/home/sepideh/optee-qemu/optee_os/lib/libutils/isoc/bget_malloc.c:137
    163a:	687a      	ldr	r2, [r7, #4]
    163c:	68b9      	ldr	r1, [r7, #8]
    163e:	68f8      	ldr	r0, [r7, #12]
    1640:	f00f fe50 	bl	112e4 <memcpy>
    1644:	4603      	mov	r3, r0
/home/sepideh/optee-qemu/optee_os/lib/libutils/isoc/bget_malloc.c:138
    1646:	4618      	mov	r0, r3
    1648:	f107 0710 	add.w	r7, r7, #16
    164c:	46bd      	mov	sp, r7
    164e:	bd80      	pop	{r7, pc}

00001650 <bget>:
bget():
/home/sepideh/optee-qemu/optee_os/lib/libutils/isoc/bget.c:583
    1650:	e96d 7e02 	strd	r7, lr, [sp, #-8]!
    1654:	b088      	sub	sp, #32
    1656:	af00      	add	r7, sp, #0
    1658:	6078      	str	r0, [r7, #4]
    165a:	6039      	str	r1, [r7, #0]
/home/sepideh/optee-qemu/optee_os/lib/libutils/isoc/bget.c:584
    165c:	687b      	ldr	r3, [r7, #4]
    165e:	60bb      	str	r3, [r7, #8]
/home/sepideh/optee-qemu/optee_os/lib/libutils/isoc/bget.c:594
    1660:	68bb      	ldr	r3, [r7, #8]
    1662:	2b00      	cmp	r3, #0
    1664:	dc0b      	bgt.n	167e <bget+0x2e>
/home/sepideh/optee-qemu/optee_os/lib/libutils/isoc/bget.c:594 (discriminator 1)
    1666:	4b87      	ldr	r3, [pc, #540]	; (1884 <bget+0x234>)
    1668:	447b      	add	r3, pc
    166a:	f240 2252 	movw	r2, #594	; 0x252
    166e:	4986      	ldr	r1, [pc, #536]	; (1888 <bget+0x238>)
    1670:	4479      	add	r1, pc
    1672:	4886      	ldr	r0, [pc, #536]	; (188c <bget+0x23c>)
    1674:	4478      	add	r0, pc
    1676:	f002 fbc5 	bl	3e04 <_assert_log>
    167a:	f002 fbe7 	bl	3e4c <_assert_break>
/home/sepideh/optee-qemu/optee_os/lib/libutils/isoc/bget.c:596
    167e:	68bb      	ldr	r3, [r7, #8]
    1680:	2b07      	cmp	r3, #7
    1682:	d802      	bhi.n	168a <bget+0x3a>
/home/sepideh/optee-qemu/optee_os/lib/libutils/isoc/bget.c:597
    1684:	f04f 0308 	mov.w	r3, #8
    1688:	60bb      	str	r3, [r7, #8]
/home/sepideh/optee-qemu/optee_os/lib/libutils/isoc/bget.c:601
    168a:	68bb      	ldr	r3, [r7, #8]
    168c:	f04f 0100 	mov.w	r1, #0
    1690:	f04f 0207 	mov.w	r2, #7
    1694:	189b      	adds	r3, r3, r2
    1696:	d701      	bvc.n	169c <bget+0x4c>
    1698:	f04f 0101 	mov.w	r1, #1
    169c:	60bb      	str	r3, [r7, #8]
    169e:	460b      	mov	r3, r1
    16a0:	f003 0301 	and.w	r3, r3, #1
    16a4:	b2db      	uxtb	r3, r3
    16a6:	2b00      	cmp	r3, #0
    16a8:	d002      	beq.n	16b0 <bget+0x60>
/home/sepideh/optee-qemu/optee_os/lib/libutils/isoc/bget.c:602
    16aa:	f04f 0300 	mov.w	r3, #0
    16ae:	e0e4      	b.n	187a <bget+0x22a>
/home/sepideh/optee-qemu/optee_os/lib/libutils/isoc/bget.c:604
    16b0:	68bb      	ldr	r3, [r7, #8]
    16b2:	f023 0307 	bic.w	r3, r3, #7
    16b6:	60bb      	str	r3, [r7, #8]
/home/sepideh/optee-qemu/optee_os/lib/libutils/isoc/bget.c:609
    16b8:	68bb      	ldr	r3, [r7, #8]
    16ba:	f04f 0100 	mov.w	r1, #0
    16be:	f04f 0208 	mov.w	r2, #8
    16c2:	189b      	adds	r3, r3, r2
    16c4:	d701      	bvc.n	16ca <bget+0x7a>
    16c6:	f04f 0101 	mov.w	r1, #1
    16ca:	60bb      	str	r3, [r7, #8]
    16cc:	460b      	mov	r3, r1
    16ce:	f003 0301 	and.w	r3, r3, #1
    16d2:	b2db      	uxtb	r3, r3
    16d4:	2b00      	cmp	r3, #0
    16d6:	d002      	beq.n	16de <bget+0x8e>
/home/sepideh/optee-qemu/optee_os/lib/libutils/isoc/bget.c:610
    16d8:	f04f 0300 	mov.w	r3, #0
    16dc:	e0cd      	b.n	187a <bget+0x22a>
/home/sepideh/optee-qemu/optee_os/lib/libutils/isoc/bget.c:619
    16de:	683b      	ldr	r3, [r7, #0]
    16e0:	689b      	ldr	r3, [r3, #8]
    16e2:	61fb      	str	r3, [r7, #28]
/home/sepideh/optee-qemu/optee_os/lib/libutils/isoc/bget.c:641
    16e4:	e0c2      	b.n	186c <bget+0x21c>
/home/sepideh/optee-qemu/optee_os/lib/libutils/isoc/bget.c:642
    16e6:	69fb      	ldr	r3, [r7, #28]
    16e8:	685a      	ldr	r2, [r3, #4]
    16ea:	68bb      	ldr	r3, [r7, #8]
    16ec:	429a      	cmp	r2, r3
    16ee:	f2c0 80ba 	blt.w	1866 <bget+0x216>
/home/sepideh/optee-qemu/optee_os/lib/libutils/isoc/bget.c:653
    16f2:	69fb      	ldr	r3, [r7, #28]
    16f4:	685a      	ldr	r2, [r3, #4]
    16f6:	68bb      	ldr	r3, [r7, #8]
    16f8:	eba2 0303 	sub.w	r3, r2, r3
    16fc:	2b10      	cmp	r3, #16
    16fe:	d94a      	bls.n	1796 <bget+0x146>
/home/sepideh/optee-qemu/optee_os/lib/libutils/isoc/bget.c:656
    1700:	69fb      	ldr	r3, [r7, #28]
    1702:	685a      	ldr	r2, [r3, #4]
    1704:	68bb      	ldr	r3, [r7, #8]
    1706:	eba2 0303 	sub.w	r3, r2, r3
    170a:	461a      	mov	r2, r3
    170c:	69fb      	ldr	r3, [r7, #28]
    170e:	4413      	add	r3, r2
    1710:	613b      	str	r3, [r7, #16]
/home/sepideh/optee-qemu/optee_os/lib/libutils/isoc/bget.c:657
    1712:	68bb      	ldr	r3, [r7, #8]
    1714:	461a      	mov	r2, r3
    1716:	693b      	ldr	r3, [r7, #16]
    1718:	4413      	add	r3, r2
    171a:	60fb      	str	r3, [r7, #12]
/home/sepideh/optee-qemu/optee_os/lib/libutils/isoc/bget.c:658
    171c:	68fb      	ldr	r3, [r7, #12]
    171e:	681a      	ldr	r2, [r3, #0]
    1720:	69fb      	ldr	r3, [r7, #28]
    1722:	685b      	ldr	r3, [r3, #4]
    1724:	429a      	cmp	r2, r3
    1726:	d00b      	beq.n	1740 <bget+0xf0>
/home/sepideh/optee-qemu/optee_os/lib/libutils/isoc/bget.c:658 (discriminator 1)
    1728:	4b59      	ldr	r3, [pc, #356]	; (1890 <bget+0x240>)
    172a:	447b      	add	r3, pc
    172c:	f240 2292 	movw	r2, #658	; 0x292
    1730:	4958      	ldr	r1, [pc, #352]	; (1894 <bget+0x244>)
    1732:	4479      	add	r1, pc
    1734:	4858      	ldr	r0, [pc, #352]	; (1898 <bget+0x248>)
    1736:	4478      	add	r0, pc
    1738:	f002 fb64 	bl	3e04 <_assert_log>
    173c:	f002 fb86 	bl	3e4c <_assert_break>
/home/sepideh/optee-qemu/optee_os/lib/libutils/isoc/bget.c:660
    1740:	69fb      	ldr	r3, [r7, #28]
    1742:	685a      	ldr	r2, [r3, #4]
    1744:	68bb      	ldr	r3, [r7, #8]
    1746:	eba2 0203 	sub.w	r2, r2, r3
    174a:	69fb      	ldr	r3, [r7, #28]
    174c:	605a      	str	r2, [r3, #4]
/home/sepideh/optee-qemu/optee_os/lib/libutils/isoc/bget.c:662
    174e:	69fb      	ldr	r3, [r7, #28]
    1750:	685a      	ldr	r2, [r3, #4]
    1752:	693b      	ldr	r3, [r7, #16]
    1754:	601a      	str	r2, [r3, #0]
/home/sepideh/optee-qemu/optee_os/lib/libutils/isoc/bget.c:664
    1756:	68bb      	ldr	r3, [r7, #8]
    1758:	f1c3 0200 	rsb	r2, r3, #0
    175c:	693b      	ldr	r3, [r7, #16]
    175e:	605a      	str	r2, [r3, #4]
/home/sepideh/optee-qemu/optee_os/lib/libutils/isoc/bget.c:666
    1760:	68fb      	ldr	r3, [r7, #12]
    1762:	f04f 0200 	mov.w	r2, #0
    1766:	601a      	str	r2, [r3, #0]
/home/sepideh/optee-qemu/optee_os/lib/libutils/isoc/bget.c:669
    1768:	683b      	ldr	r3, [r7, #0]
    176a:	691a      	ldr	r2, [r3, #16]
    176c:	68bb      	ldr	r3, [r7, #8]
    176e:	441a      	add	r2, r3
    1770:	683b      	ldr	r3, [r7, #0]
    1772:	611a      	str	r2, [r3, #16]
/home/sepideh/optee-qemu/optee_os/lib/libutils/isoc/bget.c:670
    1774:	683b      	ldr	r3, [r7, #0]
    1776:	695b      	ldr	r3, [r3, #20]
    1778:	f103 0201 	add.w	r2, r3, #1
    177c:	683b      	ldr	r3, [r7, #0]
    177e:	615a      	str	r2, [r3, #20]
/home/sepideh/optee-qemu/optee_os/lib/libutils/isoc/bget.c:672
    1780:	693b      	ldr	r3, [r7, #16]
    1782:	f103 0308 	add.w	r3, r3, #8
    1786:	617b      	str	r3, [r7, #20]
/home/sepideh/optee-qemu/optee_os/lib/libutils/isoc/bget.c:673
    1788:	68bb      	ldr	r3, [r7, #8]
    178a:	4619      	mov	r1, r3
    178c:	6978      	ldr	r0, [r7, #20]
    178e:	f7ff ff2e 	bl	15ee <tag_asan_alloced>
/home/sepideh/optee-qemu/optee_os/lib/libutils/isoc/bget.c:674
    1792:	697b      	ldr	r3, [r7, #20]
    1794:	e071      	b.n	187a <bget+0x22a>
/home/sepideh/optee-qemu/optee_os/lib/libutils/isoc/bget.c:678
    1796:	69fb      	ldr	r3, [r7, #28]
    1798:	685b      	ldr	r3, [r3, #4]
    179a:	461a      	mov	r2, r3
    179c:	69fb      	ldr	r3, [r7, #28]
    179e:	4413      	add	r3, r2
    17a0:	61bb      	str	r3, [r7, #24]
/home/sepideh/optee-qemu/optee_os/lib/libutils/isoc/bget.c:679
    17a2:	69bb      	ldr	r3, [r7, #24]
    17a4:	681a      	ldr	r2, [r3, #0]
    17a6:	69fb      	ldr	r3, [r7, #28]
    17a8:	685b      	ldr	r3, [r3, #4]
    17aa:	429a      	cmp	r2, r3
    17ac:	d00b      	beq.n	17c6 <bget+0x176>
/home/sepideh/optee-qemu/optee_os/lib/libutils/isoc/bget.c:679 (discriminator 1)
    17ae:	4b3b      	ldr	r3, [pc, #236]	; (189c <bget+0x24c>)
    17b0:	447b      	add	r3, pc
    17b2:	f240 22a7 	movw	r2, #679	; 0x2a7
    17b6:	493a      	ldr	r1, [pc, #232]	; (18a0 <bget+0x250>)
    17b8:	4479      	add	r1, pc
    17ba:	483a      	ldr	r0, [pc, #232]	; (18a4 <bget+0x254>)
    17bc:	4478      	add	r0, pc
    17be:	f002 fb21 	bl	3e04 <_assert_log>
    17c2:	f002 fb43 	bl	3e4c <_assert_break>
/home/sepideh/optee-qemu/optee_os/lib/libutils/isoc/bget.c:684
    17c6:	69fb      	ldr	r3, [r7, #28]
    17c8:	68db      	ldr	r3, [r3, #12]
    17ca:	689b      	ldr	r3, [r3, #8]
    17cc:	69fa      	ldr	r2, [r7, #28]
    17ce:	429a      	cmp	r2, r3
    17d0:	d00b      	beq.n	17ea <bget+0x19a>
/home/sepideh/optee-qemu/optee_os/lib/libutils/isoc/bget.c:684 (discriminator 1)
    17d2:	4b35      	ldr	r3, [pc, #212]	; (18a8 <bget+0x258>)
    17d4:	447b      	add	r3, pc
    17d6:	f44f 722b 	mov.w	r2, #684	; 0x2ac
    17da:	4934      	ldr	r1, [pc, #208]	; (18ac <bget+0x25c>)
    17dc:	4479      	add	r1, pc
    17de:	4834      	ldr	r0, [pc, #208]	; (18b0 <bget+0x260>)
    17e0:	4478      	add	r0, pc
    17e2:	f002 fb0f 	bl	3e04 <_assert_log>
    17e6:	f002 fb31 	bl	3e4c <_assert_break>
/home/sepideh/optee-qemu/optee_os/lib/libutils/isoc/bget.c:685
    17ea:	69fb      	ldr	r3, [r7, #28]
    17ec:	689b      	ldr	r3, [r3, #8]
    17ee:	68db      	ldr	r3, [r3, #12]
    17f0:	69fa      	ldr	r2, [r7, #28]
    17f2:	429a      	cmp	r2, r3
    17f4:	d00b      	beq.n	180e <bget+0x1be>
/home/sepideh/optee-qemu/optee_os/lib/libutils/isoc/bget.c:685 (discriminator 1)
    17f6:	4b2f      	ldr	r3, [pc, #188]	; (18b4 <bget+0x264>)
    17f8:	447b      	add	r3, pc
    17fa:	f240 22ad 	movw	r2, #685	; 0x2ad
    17fe:	492e      	ldr	r1, [pc, #184]	; (18b8 <bget+0x268>)
    1800:	4479      	add	r1, pc
    1802:	482e      	ldr	r0, [pc, #184]	; (18bc <bget+0x26c>)
    1804:	4478      	add	r0, pc
    1806:	f002 fafd 	bl	3e04 <_assert_log>
    180a:	f002 fb1f 	bl	3e4c <_assert_break>
/home/sepideh/optee-qemu/optee_os/lib/libutils/isoc/bget.c:686
    180e:	69fb      	ldr	r3, [r7, #28]
    1810:	68db      	ldr	r3, [r3, #12]
    1812:	69fa      	ldr	r2, [r7, #28]
    1814:	6892      	ldr	r2, [r2, #8]
    1816:	609a      	str	r2, [r3, #8]
/home/sepideh/optee-qemu/optee_os/lib/libutils/isoc/bget.c:687
    1818:	69fb      	ldr	r3, [r7, #28]
    181a:	689b      	ldr	r3, [r3, #8]
    181c:	69fa      	ldr	r2, [r7, #28]
    181e:	68d2      	ldr	r2, [r2, #12]
    1820:	60da      	str	r2, [r3, #12]
/home/sepideh/optee-qemu/optee_os/lib/libutils/isoc/bget.c:690
    1822:	683b      	ldr	r3, [r7, #0]
    1824:	691a      	ldr	r2, [r3, #16]
    1826:	69fb      	ldr	r3, [r7, #28]
    1828:	685b      	ldr	r3, [r3, #4]
    182a:	441a      	add	r2, r3
    182c:	683b      	ldr	r3, [r7, #0]
    182e:	611a      	str	r2, [r3, #16]
/home/sepideh/optee-qemu/optee_os/lib/libutils/isoc/bget.c:691
    1830:	683b      	ldr	r3, [r7, #0]
    1832:	695b      	ldr	r3, [r3, #20]
    1834:	f103 0201 	add.w	r2, r3, #1
    1838:	683b      	ldr	r3, [r7, #0]
    183a:	615a      	str	r2, [r3, #20]
/home/sepideh/optee-qemu/optee_os/lib/libutils/isoc/bget.c:694
    183c:	69fb      	ldr	r3, [r7, #28]
    183e:	685b      	ldr	r3, [r3, #4]
    1840:	f1c3 0200 	rsb	r2, r3, #0
    1844:	69fb      	ldr	r3, [r7, #28]
    1846:	605a      	str	r2, [r3, #4]
/home/sepideh/optee-qemu/optee_os/lib/libutils/isoc/bget.c:698
    1848:	69bb      	ldr	r3, [r7, #24]
    184a:	f04f 0200 	mov.w	r2, #0
    184e:	601a      	str	r2, [r3, #0]
/home/sepideh/optee-qemu/optee_os/lib/libutils/isoc/bget.c:701
    1850:	69fb      	ldr	r3, [r7, #28]
    1852:	f103 0308 	add.w	r3, r3, #8
    1856:	617b      	str	r3, [r7, #20]
/home/sepideh/optee-qemu/optee_os/lib/libutils/isoc/bget.c:702
    1858:	68bb      	ldr	r3, [r7, #8]
    185a:	4619      	mov	r1, r3
    185c:	6978      	ldr	r0, [r7, #20]
    185e:	f7ff fec6 	bl	15ee <tag_asan_alloced>
/home/sepideh/optee-qemu/optee_os/lib/libutils/isoc/bget.c:703
    1862:	697b      	ldr	r3, [r7, #20]
    1864:	e009      	b.n	187a <bget+0x22a>
/home/sepideh/optee-qemu/optee_os/lib/libutils/isoc/bget.c:706
    1866:	69fb      	ldr	r3, [r7, #28]
    1868:	689b      	ldr	r3, [r3, #8]
    186a:	61fb      	str	r3, [r7, #28]
/home/sepideh/optee-qemu/optee_os/lib/libutils/isoc/bget.c:641
    186c:	683b      	ldr	r3, [r7, #0]
    186e:	69fa      	ldr	r2, [r7, #28]
    1870:	429a      	cmp	r2, r3
    1872:	f47f af38 	bne.w	16e6 <bget+0x96>
/home/sepideh/optee-qemu/optee_os/lib/libutils/isoc/bget.c:769
    1876:	f04f 0300 	mov.w	r3, #0
/home/sepideh/optee-qemu/optee_os/lib/libutils/isoc/bget.c:770 (discriminator 1)
    187a:	4618      	mov	r0, r3
    187c:	f107 0720 	add.w	r7, r7, #32
    1880:	46bd      	mov	sp, r7
    1882:	bd80      	pop	{r7, pc}
    1884:	000120f8 	.word	0x000120f8
    1888:	00011e20 	.word	0x00011e20
    188c:	00011e38 	.word	0x00011e38
    1890:	00012036 	.word	0x00012036
    1894:	00011d5e 	.word	0x00011d5e
    1898:	00011d82 	.word	0x00011d82
    189c:	00011fb0 	.word	0x00011fb0
    18a0:	00011cd8 	.word	0x00011cd8
    18a4:	00011d18 	.word	0x00011d18
    18a8:	00011f8c 	.word	0x00011f8c
    18ac:	00011cb4 	.word	0x00011cb4
    18b0:	00011d10 	.word	0x00011d10
    18b4:	00011f68 	.word	0x00011f68
    18b8:	00011c90 	.word	0x00011c90
    18bc:	00011d08 	.word	0x00011d08

000018c0 <bgetz>:
bgetz():
/home/sepideh/optee-qemu/optee_os/lib/libutils/isoc/bget.c:779
    18c0:	e96d 7e02 	strd	r7, lr, [sp, #-8]!
    18c4:	b086      	sub	sp, #24
    18c6:	af00      	add	r7, sp, #0
    18c8:	6078      	str	r0, [r7, #4]
    18ca:	6039      	str	r1, [r7, #0]
/home/sepideh/optee-qemu/optee_os/lib/libutils/isoc/bget.c:780
    18cc:	6839      	ldr	r1, [r7, #0]
    18ce:	6878      	ldr	r0, [r7, #4]
    18d0:	f7ff febe 	bl	1650 <bget>
    18d4:	6138      	str	r0, [r7, #16]
/home/sepideh/optee-qemu/optee_os/lib/libutils/isoc/bget.c:782
    18d6:	693b      	ldr	r3, [r7, #16]
    18d8:	2b00      	cmp	r3, #0
    18da:	d030      	beq.n	193e <bgetz+0x7e>
/home/sepideh/optee-qemu/optee_os/lib/libutils/isoc/bget.c:786
    18dc:	693b      	ldr	r3, [r7, #16]
    18de:	f1a3 0308 	sub.w	r3, r3, #8
    18e2:	60fb      	str	r3, [r7, #12]
/home/sepideh/optee-qemu/optee_os/lib/libutils/isoc/bget.c:787
    18e4:	68fb      	ldr	r3, [r7, #12]
    18e6:	685b      	ldr	r3, [r3, #4]
    18e8:	f1c3 0300 	rsb	r3, r3, #0
    18ec:	617b      	str	r3, [r7, #20]
/home/sepideh/optee-qemu/optee_os/lib/libutils/isoc/bget.c:788
    18ee:	697b      	ldr	r3, [r7, #20]
    18f0:	2b00      	cmp	r3, #0
    18f2:	d109      	bne.n	1908 <bgetz+0x48>
/home/sepideh/optee-qemu/optee_os/lib/libutils/isoc/bget.c:791
    18f4:	693b      	ldr	r3, [r7, #16]
    18f6:	f1a3 030c 	sub.w	r3, r3, #12
    18fa:	60bb      	str	r3, [r7, #8]
/home/sepideh/optee-qemu/optee_os/lib/libutils/isoc/bget.c:792
    18fc:	68bb      	ldr	r3, [r7, #8]
    18fe:	681b      	ldr	r3, [r3, #0]
    1900:	f1a3 030c 	sub.w	r3, r3, #12
    1904:	617b      	str	r3, [r7, #20]
    1906:	e003      	b.n	1910 <bgetz+0x50>
/home/sepideh/optee-qemu/optee_os/lib/libutils/isoc/bget.c:794
    1908:	697b      	ldr	r3, [r7, #20]
    190a:	f1a3 0308 	sub.w	r3, r3, #8
    190e:	617b      	str	r3, [r7, #20]
/home/sepideh/optee-qemu/optee_os/lib/libutils/isoc/bget.c:796
    1910:	697a      	ldr	r2, [r7, #20]
    1912:	687b      	ldr	r3, [r7, #4]
    1914:	429a      	cmp	r2, r3
    1916:	da0b      	bge.n	1930 <bgetz+0x70>
/home/sepideh/optee-qemu/optee_os/lib/libutils/isoc/bget.c:796 (discriminator 1)
    1918:	4b0c      	ldr	r3, [pc, #48]	; (194c <bgetz+0x8c>)
    191a:	447b      	add	r3, pc
    191c:	f44f 7247 	mov.w	r2, #796	; 0x31c
    1920:	490b      	ldr	r1, [pc, #44]	; (1950 <bgetz+0x90>)
    1922:	4479      	add	r1, pc
    1924:	480b      	ldr	r0, [pc, #44]	; (1954 <bgetz+0x94>)
    1926:	4478      	add	r0, pc
    1928:	f002 fa6c 	bl	3e04 <_assert_log>
    192c:	f002 fa8e 	bl	3e4c <_assert_break>
/home/sepideh/optee-qemu/optee_os/lib/libutils/isoc/bget.c:797
    1930:	697b      	ldr	r3, [r7, #20]
    1932:	461a      	mov	r2, r3
    1934:	f04f 0100 	mov.w	r1, #0
    1938:	6938      	ldr	r0, [r7, #16]
    193a:	f7ff fe65 	bl	1608 <memset_unchecked>
/home/sepideh/optee-qemu/optee_os/lib/libutils/isoc/bget.c:799
    193e:	693b      	ldr	r3, [r7, #16]
/home/sepideh/optee-qemu/optee_os/lib/libutils/isoc/bget.c:800
    1940:	4618      	mov	r0, r3
    1942:	f107 0718 	add.w	r7, r7, #24
    1946:	46bd      	mov	sp, r7
    1948:	bd80      	pop	{r7, pc}
    194a:	bf00      	nop
    194c:	00011e4e 	.word	0x00011e4e
    1950:	00011b6e 	.word	0x00011b6e
    1954:	00011c02 	.word	0x00011c02

00001958 <bgetr>:
bgetr():
/home/sepideh/optee-qemu/optee_os/lib/libutils/isoc/bget.c:811
    1958:	e96d 7e02 	strd	r7, lr, [sp, #-8]!
    195c:	b088      	sub	sp, #32
    195e:	af00      	add	r7, sp, #0
    1960:	60f8      	str	r0, [r7, #12]
    1962:	60b9      	str	r1, [r7, #8]
    1964:	607a      	str	r2, [r7, #4]
/home/sepideh/optee-qemu/optee_os/lib/libutils/isoc/bget.c:816
    1966:	6879      	ldr	r1, [r7, #4]
    1968:	68b8      	ldr	r0, [r7, #8]
    196a:	f7ff fe71 	bl	1650 <bget>
    196e:	61f8      	str	r0, [r7, #28]
    1970:	69fb      	ldr	r3, [r7, #28]
    1972:	2b00      	cmp	r3, #0
    1974:	d102      	bne.n	197c <bgetr+0x24>
/home/sepideh/optee-qemu/optee_os/lib/libutils/isoc/bget.c:817
    1976:	f04f 0300 	mov.w	r3, #0
    197a:	e042      	b.n	1a02 <bgetr+0xaa>
/home/sepideh/optee-qemu/optee_os/lib/libutils/isoc/bget.c:819
    197c:	68fb      	ldr	r3, [r7, #12]
    197e:	2b00      	cmp	r3, #0
    1980:	d101      	bne.n	1986 <bgetr+0x2e>
/home/sepideh/optee-qemu/optee_os/lib/libutils/isoc/bget.c:820
    1982:	69fb      	ldr	r3, [r7, #28]
    1984:	e03d      	b.n	1a02 <bgetr+0xaa>
/home/sepideh/optee-qemu/optee_os/lib/libutils/isoc/bget.c:822
    1986:	68fb      	ldr	r3, [r7, #12]
    1988:	f1a3 0308 	sub.w	r3, r3, #8
    198c:	61bb      	str	r3, [r7, #24]
/home/sepideh/optee-qemu/optee_os/lib/libutils/isoc/bget.c:823
    198e:	69bb      	ldr	r3, [r7, #24]
    1990:	685b      	ldr	r3, [r3, #4]
    1992:	f1c3 0300 	rsb	r3, r3, #0
    1996:	617b      	str	r3, [r7, #20]
/home/sepideh/optee-qemu/optee_os/lib/libutils/isoc/bget.c:833
    1998:	697b      	ldr	r3, [r7, #20]
    199a:	f1a3 0308 	sub.w	r3, r3, #8
    199e:	617b      	str	r3, [r7, #20]
/home/sepideh/optee-qemu/optee_os/lib/libutils/isoc/bget.c:834
    19a0:	697b      	ldr	r3, [r7, #20]
    19a2:	2b00      	cmp	r3, #0
    19a4:	dc0b      	bgt.n	19be <bgetr+0x66>
/home/sepideh/optee-qemu/optee_os/lib/libutils/isoc/bget.c:834 (discriminator 1)
    19a6:	4b19      	ldr	r3, [pc, #100]	; (1a0c <bgetr+0xb4>)
    19a8:	447b      	add	r3, pc
    19aa:	f240 3242 	movw	r2, #834	; 0x342
    19ae:	4918      	ldr	r1, [pc, #96]	; (1a10 <bgetr+0xb8>)
    19b0:	4479      	add	r1, pc
    19b2:	4818      	ldr	r0, [pc, #96]	; (1a14 <bgetr+0xbc>)
    19b4:	4478      	add	r0, pc
    19b6:	f002 fa25 	bl	3e04 <_assert_log>
    19ba:	f002 fa47 	bl	3e4c <_assert_break>
/home/sepideh/optee-qemu/optee_os/lib/libutils/isoc/bget.c:836
    19be:	697a      	ldr	r2, [r7, #20]
    19c0:	68bb      	ldr	r3, [r7, #8]
    19c2:	4293      	cmp	r3, r2
    19c4:	bfa8      	it	ge
    19c6:	4613      	movge	r3, r2
/home/sepideh/optee-qemu/optee_os/lib/libutils/isoc/bget.c:835
    19c8:	461a      	mov	r2, r3
    19ca:	68f9      	ldr	r1, [r7, #12]
    19cc:	69f8      	ldr	r0, [r7, #28]
    19ce:	f00f fc89 	bl	112e4 <memcpy>
/home/sepideh/optee-qemu/optee_os/lib/libutils/isoc/bget.c:839
    19d2:	68ba      	ldr	r2, [r7, #8]
    19d4:	697b      	ldr	r3, [r7, #20]
    19d6:	429a      	cmp	r2, r3
    19d8:	dd0c      	ble.n	19f4 <bgetr+0x9c>
/home/sepideh/optee-qemu/optee_os/lib/libutils/isoc/bget.c:840
    19da:	697b      	ldr	r3, [r7, #20]
    19dc:	69fa      	ldr	r2, [r7, #28]
    19de:	eb02 0003 	add.w	r0, r2, r3
    19e2:	68ba      	ldr	r2, [r7, #8]
    19e4:	697b      	ldr	r3, [r7, #20]
    19e6:	eba2 0303 	sub.w	r3, r2, r3
    19ea:	461a      	mov	r2, r3
    19ec:	f04f 0100 	mov.w	r1, #0
    19f0:	f00f fcf1 	bl	113d6 <memset>
/home/sepideh/optee-qemu/optee_os/lib/libutils/isoc/bget.c:842
    19f4:	f04f 0200 	mov.w	r2, #0
    19f8:	6879      	ldr	r1, [r7, #4]
    19fa:	68f8      	ldr	r0, [r7, #12]
    19fc:	f000 f80c 	bl	1a18 <brel>
/home/sepideh/optee-qemu/optee_os/lib/libutils/isoc/bget.c:843
    1a00:	69fb      	ldr	r3, [r7, #28]
/home/sepideh/optee-qemu/optee_os/lib/libutils/isoc/bget.c:844
    1a02:	4618      	mov	r0, r3
    1a04:	f107 0720 	add.w	r7, r7, #32
    1a08:	46bd      	mov	sp, r7
    1a0a:	bd80      	pop	{r7, pc}
    1a0c:	00011dc8 	.word	0x00011dc8
    1a10:	00011ae0 	.word	0x00011ae0
    1a14:	00011b84 	.word	0x00011b84

00001a18 <brel>:
brel():
/home/sepideh/optee-qemu/optee_os/lib/libutils/isoc/bget.c:852
    1a18:	f84d 4d0c 	str.w	r4, [sp, #-12]!
    1a1c:	e9cd 7e01 	strd	r7, lr, [sp, #4]
    1a20:	b089      	sub	sp, #36	; 0x24
    1a22:	af00      	add	r7, sp, #0
    1a24:	60f8      	str	r0, [r7, #12]
    1a26:	60b9      	str	r1, [r7, #8]
    1a28:	607a      	str	r2, [r7, #4]
/home/sepideh/optee-qemu/optee_os/lib/libutils/isoc/bget.c:856
    1a2a:	68fb      	ldr	r3, [r7, #12]
    1a2c:	f1a3 0308 	sub.w	r3, r3, #8
    1a30:	61fb      	str	r3, [r7, #28]
/home/sepideh/optee-qemu/optee_os/lib/libutils/isoc/bget.c:858
    1a32:	68bb      	ldr	r3, [r7, #8]
    1a34:	699b      	ldr	r3, [r3, #24]
    1a36:	f103 0201 	add.w	r2, r3, #1
    1a3a:	68bb      	ldr	r3, [r7, #8]
    1a3c:	619a      	str	r2, [r3, #24]
/home/sepideh/optee-qemu/optee_os/lib/libutils/isoc/bget.c:860
    1a3e:	68fb      	ldr	r3, [r7, #12]
    1a40:	2b00      	cmp	r3, #0
    1a42:	d10b      	bne.n	1a5c <brel+0x44>
/home/sepideh/optee-qemu/optee_os/lib/libutils/isoc/bget.c:860 (discriminator 1)
    1a44:	4ba1      	ldr	r3, [pc, #644]	; (1ccc <brel+0x2b4>)
    1a46:	447b      	add	r3, pc
    1a48:	f44f 7257 	mov.w	r2, #860	; 0x35c
    1a4c:	49a0      	ldr	r1, [pc, #640]	; (1cd0 <brel+0x2b8>)
    1a4e:	4479      	add	r1, pc
    1a50:	48a0      	ldr	r0, [pc, #640]	; (1cd4 <brel+0x2bc>)
    1a52:	4478      	add	r0, pc
    1a54:	f002 f9d6 	bl	3e04 <_assert_log>
    1a58:	f002 f9f8 	bl	3e4c <_assert_break>
/home/sepideh/optee-qemu/optee_os/lib/libutils/isoc/bget.c:892
    1a5c:	69fb      	ldr	r3, [r7, #28]
    1a5e:	685b      	ldr	r3, [r3, #4]
    1a60:	2b00      	cmp	r3, #0
    1a62:	db02      	blt.n	1a6a <brel+0x52>
/home/sepideh/optee-qemu/optee_os/lib/libutils/isoc/bget.c:893
    1a64:	f04f 0300 	mov.w	r3, #0
    1a68:	61bb      	str	r3, [r7, #24]
/home/sepideh/optee-qemu/optee_os/lib/libutils/isoc/bget.c:895
    1a6a:	69fb      	ldr	r3, [r7, #28]
    1a6c:	685b      	ldr	r3, [r3, #4]
    1a6e:	2b00      	cmp	r3, #0
    1a70:	db0b      	blt.n	1a8a <brel+0x72>
/home/sepideh/optee-qemu/optee_os/lib/libutils/isoc/bget.c:895 (discriminator 1)
    1a72:	4b99      	ldr	r3, [pc, #612]	; (1cd8 <brel+0x2c0>)
    1a74:	447b      	add	r3, pc
    1a76:	f240 327f 	movw	r2, #895	; 0x37f
    1a7a:	4998      	ldr	r1, [pc, #608]	; (1cdc <brel+0x2c4>)
    1a7c:	4479      	add	r1, pc
    1a7e:	4898      	ldr	r0, [pc, #608]	; (1ce0 <brel+0x2c8>)
    1a80:	4478      	add	r0, pc
    1a82:	f002 f9bf 	bl	3e04 <_assert_log>
    1a86:	f002 f9e1 	bl	3e4c <_assert_break>
/home/sepideh/optee-qemu/optee_os/lib/libutils/isoc/bget.c:896
    1a8a:	69fb      	ldr	r3, [r7, #28]
    1a8c:	685b      	ldr	r3, [r3, #4]
    1a8e:	f1c3 0300 	rsb	r3, r3, #0
    1a92:	617b      	str	r3, [r7, #20]
/home/sepideh/optee-qemu/optee_os/lib/libutils/isoc/bget.c:901
    1a94:	69fb      	ldr	r3, [r7, #28]
    1a96:	685b      	ldr	r3, [r3, #4]
    1a98:	f1c3 0300 	rsb	r3, r3, #0
    1a9c:	69fa      	ldr	r2, [r7, #28]
    1a9e:	4413      	add	r3, r2
    1aa0:	681b      	ldr	r3, [r3, #0]
    1aa2:	2b00      	cmp	r3, #0
    1aa4:	d00b      	beq.n	1abe <brel+0xa6>
/home/sepideh/optee-qemu/optee_os/lib/libutils/isoc/bget.c:901 (discriminator 1)
    1aa6:	4b8f      	ldr	r3, [pc, #572]	; (1ce4 <brel+0x2cc>)
    1aa8:	447b      	add	r3, pc
    1aaa:	f240 3285 	movw	r2, #901	; 0x385
    1aae:	498e      	ldr	r1, [pc, #568]	; (1ce8 <brel+0x2d0>)
    1ab0:	4479      	add	r1, pc
    1ab2:	488e      	ldr	r0, [pc, #568]	; (1cec <brel+0x2d4>)
    1ab4:	4478      	add	r0, pc
    1ab6:	f002 f9a5 	bl	3e04 <_assert_log>
    1aba:	f002 f9c7 	bl	3e4c <_assert_break>
/home/sepideh/optee-qemu/optee_os/lib/libutils/isoc/bget.c:904
    1abe:	68bb      	ldr	r3, [r7, #8]
    1ac0:	691a      	ldr	r2, [r3, #16]
    1ac2:	69fb      	ldr	r3, [r7, #28]
    1ac4:	685b      	ldr	r3, [r3, #4]
    1ac6:	441a      	add	r2, r3
    1ac8:	68bb      	ldr	r3, [r7, #8]
    1aca:	611a      	str	r2, [r3, #16]
/home/sepideh/optee-qemu/optee_os/lib/libutils/isoc/bget.c:905
    1acc:	68bb      	ldr	r3, [r7, #8]
    1ace:	691b      	ldr	r3, [r3, #16]
    1ad0:	2b00      	cmp	r3, #0
    1ad2:	da0b      	bge.n	1aec <brel+0xd4>
/home/sepideh/optee-qemu/optee_os/lib/libutils/isoc/bget.c:905 (discriminator 1)
    1ad4:	4b86      	ldr	r3, [pc, #536]	; (1cf0 <brel+0x2d8>)
    1ad6:	447b      	add	r3, pc
    1ad8:	f240 3289 	movw	r2, #905	; 0x389
    1adc:	4985      	ldr	r1, [pc, #532]	; (1cf4 <brel+0x2dc>)
    1ade:	4479      	add	r1, pc
    1ae0:	4885      	ldr	r0, [pc, #532]	; (1cf8 <brel+0x2e0>)
    1ae2:	4478      	add	r0, pc
    1ae4:	f002 f98e 	bl	3e04 <_assert_log>
    1ae8:	f002 f9b0 	bl	3e4c <_assert_break>
/home/sepideh/optee-qemu/optee_os/lib/libutils/isoc/bget.c:910
    1aec:	69fb      	ldr	r3, [r7, #28]
    1aee:	681b      	ldr	r3, [r3, #0]
    1af0:	2b00      	cmp	r3, #0
    1af2:	d026      	beq.n	1b42 <brel+0x12a>
/home/sepideh/optee-qemu/optee_os/lib/libutils/isoc/bget.c:918
    1af4:	69fb      	ldr	r3, [r7, #28]
    1af6:	685c      	ldr	r4, [r3, #4]
/home/sepideh/optee-qemu/optee_os/lib/libutils/isoc/bget.c:921
    1af8:	69fb      	ldr	r3, [r7, #28]
    1afa:	681b      	ldr	r3, [r3, #0]
    1afc:	f1c3 0300 	rsb	r3, r3, #0
    1b00:	69fa      	ldr	r2, [r7, #28]
    1b02:	4413      	add	r3, r2
    1b04:	685a      	ldr	r2, [r3, #4]
    1b06:	69fb      	ldr	r3, [r7, #28]
    1b08:	681b      	ldr	r3, [r3, #0]
    1b0a:	429a      	cmp	r2, r3
    1b0c:	d00b      	beq.n	1b26 <brel+0x10e>
/home/sepideh/optee-qemu/optee_os/lib/libutils/isoc/bget.c:921 (discriminator 1)
    1b0e:	4b7b      	ldr	r3, [pc, #492]	; (1cfc <brel+0x2e4>)
    1b10:	447b      	add	r3, pc
    1b12:	f240 3299 	movw	r2, #921	; 0x399
    1b16:	497a      	ldr	r1, [pc, #488]	; (1d00 <brel+0x2e8>)
    1b18:	4479      	add	r1, pc
    1b1a:	487a      	ldr	r0, [pc, #488]	; (1d04 <brel+0x2ec>)
    1b1c:	4478      	add	r0, pc
    1b1e:	f002 f971 	bl	3e04 <_assert_log>
    1b22:	f002 f993 	bl	3e4c <_assert_break>
/home/sepideh/optee-qemu/optee_os/lib/libutils/isoc/bget.c:922
    1b26:	69fb      	ldr	r3, [r7, #28]
    1b28:	681b      	ldr	r3, [r3, #0]
    1b2a:	f1c3 0300 	rsb	r3, r3, #0
    1b2e:	69fa      	ldr	r2, [r7, #28]
    1b30:	4413      	add	r3, r2
    1b32:	61fb      	str	r3, [r7, #28]
/home/sepideh/optee-qemu/optee_os/lib/libutils/isoc/bget.c:923
    1b34:	69fb      	ldr	r3, [r7, #28]
    1b36:	685b      	ldr	r3, [r3, #4]
    1b38:	eba3 0204 	sub.w	r2, r3, r4
    1b3c:	69fb      	ldr	r3, [r7, #28]
    1b3e:	605a      	str	r2, [r3, #4]
    1b40:	e037      	b.n	1bb2 <brel+0x19a>
/home/sepideh/optee-qemu/optee_os/lib/libutils/isoc/bget.c:929
    1b42:	68bb      	ldr	r3, [r7, #8]
    1b44:	68db      	ldr	r3, [r3, #12]
    1b46:	689a      	ldr	r2, [r3, #8]
    1b48:	68bb      	ldr	r3, [r7, #8]
    1b4a:	429a      	cmp	r2, r3
    1b4c:	d00b      	beq.n	1b66 <brel+0x14e>
/home/sepideh/optee-qemu/optee_os/lib/libutils/isoc/bget.c:929 (discriminator 1)
    1b4e:	4b6e      	ldr	r3, [pc, #440]	; (1d08 <brel+0x2f0>)
    1b50:	447b      	add	r3, pc
    1b52:	f240 32a1 	movw	r2, #929	; 0x3a1
    1b56:	496d      	ldr	r1, [pc, #436]	; (1d0c <brel+0x2f4>)
    1b58:	4479      	add	r1, pc
    1b5a:	486d      	ldr	r0, [pc, #436]	; (1d10 <brel+0x2f8>)
    1b5c:	4478      	add	r0, pc
    1b5e:	f002 f951 	bl	3e04 <_assert_log>
    1b62:	f002 f973 	bl	3e4c <_assert_break>
/home/sepideh/optee-qemu/optee_os/lib/libutils/isoc/bget.c:930
    1b66:	68bb      	ldr	r3, [r7, #8]
    1b68:	689b      	ldr	r3, [r3, #8]
    1b6a:	68da      	ldr	r2, [r3, #12]
    1b6c:	68bb      	ldr	r3, [r7, #8]
    1b6e:	429a      	cmp	r2, r3
    1b70:	d00b      	beq.n	1b8a <brel+0x172>
/home/sepideh/optee-qemu/optee_os/lib/libutils/isoc/bget.c:930 (discriminator 1)
    1b72:	4b68      	ldr	r3, [pc, #416]	; (1d14 <brel+0x2fc>)
    1b74:	447b      	add	r3, pc
    1b76:	f240 32a2 	movw	r2, #930	; 0x3a2
    1b7a:	4967      	ldr	r1, [pc, #412]	; (1d18 <brel+0x300>)
    1b7c:	4479      	add	r1, pc
    1b7e:	4867      	ldr	r0, [pc, #412]	; (1d1c <brel+0x304>)
    1b80:	4478      	add	r0, pc
    1b82:	f002 f93f 	bl	3e04 <_assert_log>
    1b86:	f002 f961 	bl	3e4c <_assert_break>
/home/sepideh/optee-qemu/optee_os/lib/libutils/isoc/bget.c:931
    1b8a:	68ba      	ldr	r2, [r7, #8]
    1b8c:	69fb      	ldr	r3, [r7, #28]
    1b8e:	609a      	str	r2, [r3, #8]
/home/sepideh/optee-qemu/optee_os/lib/libutils/isoc/bget.c:932
    1b90:	68bb      	ldr	r3, [r7, #8]
    1b92:	68da      	ldr	r2, [r3, #12]
    1b94:	69fb      	ldr	r3, [r7, #28]
    1b96:	60da      	str	r2, [r3, #12]
/home/sepideh/optee-qemu/optee_os/lib/libutils/isoc/bget.c:933
    1b98:	68bb      	ldr	r3, [r7, #8]
    1b9a:	69fa      	ldr	r2, [r7, #28]
    1b9c:	60da      	str	r2, [r3, #12]
/home/sepideh/optee-qemu/optee_os/lib/libutils/isoc/bget.c:934
    1b9e:	69fb      	ldr	r3, [r7, #28]
    1ba0:	68db      	ldr	r3, [r3, #12]
    1ba2:	69fa      	ldr	r2, [r7, #28]
    1ba4:	609a      	str	r2, [r3, #8]
/home/sepideh/optee-qemu/optee_os/lib/libutils/isoc/bget.c:935
    1ba6:	69fb      	ldr	r3, [r7, #28]
    1ba8:	685b      	ldr	r3, [r3, #4]
    1baa:	f1c3 0200 	rsb	r2, r3, #0
    1bae:	69fb      	ldr	r3, [r7, #28]
    1bb0:	605a      	str	r2, [r3, #4]
/home/sepideh/optee-qemu/optee_os/lib/libutils/isoc/bget.c:943
    1bb2:	69fb      	ldr	r3, [r7, #28]
    1bb4:	685b      	ldr	r3, [r3, #4]
    1bb6:	461a      	mov	r2, r3
    1bb8:	69fb      	ldr	r3, [r7, #28]
    1bba:	4413      	add	r3, r2
    1bbc:	61bb      	str	r3, [r7, #24]
/home/sepideh/optee-qemu/optee_os/lib/libutils/isoc/bget.c:944
    1bbe:	69bb      	ldr	r3, [r7, #24]
    1bc0:	685b      	ldr	r3, [r3, #4]
    1bc2:	2b00      	cmp	r3, #0
    1bc4:	dd50      	ble.n	1c68 <brel+0x250>
/home/sepideh/optee-qemu/optee_os/lib/libutils/isoc/bget.c:949
    1bc6:	69bb      	ldr	r3, [r7, #24]
    1bc8:	685b      	ldr	r3, [r3, #4]
    1bca:	461a      	mov	r2, r3
    1bcc:	69bb      	ldr	r3, [r7, #24]
    1bce:	4413      	add	r3, r2
    1bd0:	681a      	ldr	r2, [r3, #0]
    1bd2:	69bb      	ldr	r3, [r7, #24]
    1bd4:	685b      	ldr	r3, [r3, #4]
    1bd6:	429a      	cmp	r2, r3
    1bd8:	d00b      	beq.n	1bf2 <brel+0x1da>
/home/sepideh/optee-qemu/optee_os/lib/libutils/isoc/bget.c:949 (discriminator 1)
    1bda:	4b51      	ldr	r3, [pc, #324]	; (1d20 <brel+0x308>)
    1bdc:	447b      	add	r3, pc
    1bde:	f240 32b5 	movw	r2, #949	; 0x3b5
    1be2:	4950      	ldr	r1, [pc, #320]	; (1d24 <brel+0x30c>)
    1be4:	4479      	add	r1, pc
    1be6:	4850      	ldr	r0, [pc, #320]	; (1d28 <brel+0x310>)
    1be8:	4478      	add	r0, pc
    1bea:	f002 f90b 	bl	3e04 <_assert_log>
    1bee:	f002 f92d 	bl	3e4c <_assert_break>
/home/sepideh/optee-qemu/optee_os/lib/libutils/isoc/bget.c:950
    1bf2:	69bb      	ldr	r3, [r7, #24]
    1bf4:	68db      	ldr	r3, [r3, #12]
    1bf6:	689b      	ldr	r3, [r3, #8]
    1bf8:	69ba      	ldr	r2, [r7, #24]
    1bfa:	429a      	cmp	r2, r3
    1bfc:	d00b      	beq.n	1c16 <brel+0x1fe>
/home/sepideh/optee-qemu/optee_os/lib/libutils/isoc/bget.c:950 (discriminator 1)
    1bfe:	4b4b      	ldr	r3, [pc, #300]	; (1d2c <brel+0x314>)
    1c00:	447b      	add	r3, pc
    1c02:	f240 32b6 	movw	r2, #950	; 0x3b6
    1c06:	494a      	ldr	r1, [pc, #296]	; (1d30 <brel+0x318>)
    1c08:	4479      	add	r1, pc
    1c0a:	484a      	ldr	r0, [pc, #296]	; (1d34 <brel+0x31c>)
    1c0c:	4478      	add	r0, pc
    1c0e:	f002 f8f9 	bl	3e04 <_assert_log>
    1c12:	f002 f91b 	bl	3e4c <_assert_break>
/home/sepideh/optee-qemu/optee_os/lib/libutils/isoc/bget.c:951
    1c16:	69bb      	ldr	r3, [r7, #24]
    1c18:	689b      	ldr	r3, [r3, #8]
    1c1a:	68db      	ldr	r3, [r3, #12]
    1c1c:	69ba      	ldr	r2, [r7, #24]
    1c1e:	429a      	cmp	r2, r3
    1c20:	d00b      	beq.n	1c3a <brel+0x222>
/home/sepideh/optee-qemu/optee_os/lib/libutils/isoc/bget.c:951 (discriminator 1)
    1c22:	4b45      	ldr	r3, [pc, #276]	; (1d38 <brel+0x320>)
    1c24:	447b      	add	r3, pc
    1c26:	f240 32b7 	movw	r2, #951	; 0x3b7
    1c2a:	4944      	ldr	r1, [pc, #272]	; (1d3c <brel+0x324>)
    1c2c:	4479      	add	r1, pc
    1c2e:	4844      	ldr	r0, [pc, #272]	; (1d40 <brel+0x328>)
    1c30:	4478      	add	r0, pc
    1c32:	f002 f8e7 	bl	3e04 <_assert_log>
    1c36:	f002 f909 	bl	3e4c <_assert_break>
/home/sepideh/optee-qemu/optee_os/lib/libutils/isoc/bget.c:952
    1c3a:	69bb      	ldr	r3, [r7, #24]
    1c3c:	68db      	ldr	r3, [r3, #12]
    1c3e:	69ba      	ldr	r2, [r7, #24]
    1c40:	6892      	ldr	r2, [r2, #8]
    1c42:	609a      	str	r2, [r3, #8]
/home/sepideh/optee-qemu/optee_os/lib/libutils/isoc/bget.c:953
    1c44:	69bb      	ldr	r3, [r7, #24]
    1c46:	689b      	ldr	r3, [r3, #8]
    1c48:	69ba      	ldr	r2, [r7, #24]
    1c4a:	68d2      	ldr	r2, [r2, #12]
    1c4c:	60da      	str	r2, [r3, #12]
/home/sepideh/optee-qemu/optee_os/lib/libutils/isoc/bget.c:954
    1c4e:	69fb      	ldr	r3, [r7, #28]
    1c50:	685a      	ldr	r2, [r3, #4]
    1c52:	69bb      	ldr	r3, [r7, #24]
    1c54:	685b      	ldr	r3, [r3, #4]
    1c56:	441a      	add	r2, r3
    1c58:	69fb      	ldr	r3, [r7, #28]
    1c5a:	605a      	str	r2, [r3, #4]
/home/sepideh/optee-qemu/optee_os/lib/libutils/isoc/bget.c:963
    1c5c:	69fb      	ldr	r3, [r7, #28]
    1c5e:	685b      	ldr	r3, [r3, #4]
    1c60:	461a      	mov	r2, r3
    1c62:	69fb      	ldr	r3, [r7, #28]
    1c64:	4413      	add	r3, r2
    1c66:	61bb      	str	r3, [r7, #24]
/home/sepideh/optee-qemu/optee_os/lib/libutils/isoc/bget.c:965
    1c68:	687b      	ldr	r3, [r7, #4]
    1c6a:	2b00      	cmp	r3, #0
    1c6c:	d00b      	beq.n	1c86 <brel+0x26e>
/home/sepideh/optee-qemu/optee_os/lib/libutils/isoc/bget.c:966
    1c6e:	69fb      	ldr	r3, [r7, #28]
    1c70:	f103 0010 	add.w	r0, r3, #16
/home/sepideh/optee-qemu/optee_os/lib/libutils/isoc/bget.c:967
    1c74:	69fb      	ldr	r3, [r7, #28]
    1c76:	685b      	ldr	r3, [r3, #4]
    1c78:	f1a3 0310 	sub.w	r3, r3, #16
/home/sepideh/optee-qemu/optee_os/lib/libutils/isoc/bget.c:966
    1c7c:	461a      	mov	r2, r3
    1c7e:	f04f 0155 	mov.w	r1, #85	; 0x55
    1c82:	f7ff fcc1 	bl	1608 <memset_unchecked>
/home/sepideh/optee-qemu/optee_os/lib/libutils/isoc/bget.c:969
    1c86:	69bb      	ldr	r3, [r7, #24]
    1c88:	685b      	ldr	r3, [r3, #4]
    1c8a:	2b00      	cmp	r3, #0
    1c8c:	db0b      	blt.n	1ca6 <brel+0x28e>
/home/sepideh/optee-qemu/optee_os/lib/libutils/isoc/bget.c:969 (discriminator 1)
    1c8e:	4b2d      	ldr	r3, [pc, #180]	; (1d44 <brel+0x32c>)
    1c90:	447b      	add	r3, pc
    1c92:	f240 32c9 	movw	r2, #969	; 0x3c9
    1c96:	492c      	ldr	r1, [pc, #176]	; (1d48 <brel+0x330>)
    1c98:	4479      	add	r1, pc
    1c9a:	482c      	ldr	r0, [pc, #176]	; (1d4c <brel+0x334>)
    1c9c:	4478      	add	r0, pc
    1c9e:	f002 f8b1 	bl	3e04 <_assert_log>
    1ca2:	f002 f8d3 	bl	3e4c <_assert_break>
/home/sepideh/optee-qemu/optee_os/lib/libutils/isoc/bget.c:974
    1ca6:	69fb      	ldr	r3, [r7, #28]
    1ca8:	685a      	ldr	r2, [r3, #4]
    1caa:	69bb      	ldr	r3, [r7, #24]
    1cac:	601a      	str	r2, [r3, #0]
/home/sepideh/optee-qemu/optee_os/lib/libutils/isoc/bget.c:1001
    1cae:	697b      	ldr	r3, [r7, #20]
    1cb0:	4619      	mov	r1, r3
    1cb2:	68f8      	ldr	r0, [r7, #12]
    1cb4:	f7ff fc8e 	bl	15d4 <tag_asan_free>
/home/sepideh/optee-qemu/optee_os/lib/libutils/isoc/bget.c:1002
    1cb8:	bf00      	nop
    1cba:	f107 0724 	add.w	r7, r7, #36	; 0x24
    1cbe:	46bd      	mov	sp, r7
    1cc0:	e9dd 4700 	ldrd	r4, r7, [sp]
    1cc4:	b002      	add	sp, #8
    1cc6:	f85d fb04 	ldr.w	pc, [sp], #4
    1cca:	bf00      	nop
    1ccc:	00011d32 	.word	0x00011d32
    1cd0:	00011a42 	.word	0x00011a42
    1cd4:	00011af2 	.word	0x00011af2
    1cd8:	00011d04 	.word	0x00011d04
    1cdc:	00011a14 	.word	0x00011a14
    1ce0:	00011ad0 	.word	0x00011ad0
    1ce4:	00011cd0 	.word	0x00011cd0
    1ce8:	000119e0 	.word	0x000119e0
    1cec:	00011aac 	.word	0x00011aac
    1cf0:	00011ca2 	.word	0x00011ca2
    1cf4:	000119b2 	.word	0x000119b2
    1cf8:	00011aaa 	.word	0x00011aaa
    1cfc:	00011c68 	.word	0x00011c68
    1d00:	00011978 	.word	0x00011978
    1d04:	00011a88 	.word	0x00011a88
    1d08:	00011c28 	.word	0x00011c28
    1d0c:	00011938 	.word	0x00011938
    1d10:	00011a84 	.word	0x00011a84
    1d14:	00011c04 	.word	0x00011c04
    1d18:	00011914 	.word	0x00011914
    1d1c:	00011a9c 	.word	0x00011a9c
    1d20:	00011b9c 	.word	0x00011b9c
    1d24:	000118ac 	.word	0x000118ac
    1d28:	00011a70 	.word	0x00011a70
    1d2c:	00011b78 	.word	0x00011b78
    1d30:	00011888 	.word	0x00011888
    1d34:	00011a88 	.word	0x00011a88
    1d38:	00011b54 	.word	0x00011b54
    1d3c:	00011864 	.word	0x00011864
    1d40:	00011a84 	.word	0x00011a84
    1d44:	00011ae8 	.word	0x00011ae8
    1d48:	000117f8 	.word	0x000117f8
    1d4c:	00011a38 	.word	0x00011a38

00001d50 <bpool>:
bpool():
/home/sepideh/optee-qemu/optee_os/lib/libutils/isoc/bget.c:1028
    1d50:	e96d 7e02 	strd	r7, lr, [sp, #-8]!
    1d54:	b086      	sub	sp, #24
    1d56:	af00      	add	r7, sp, #0
    1d58:	60f8      	str	r0, [r7, #12]
    1d5a:	60b9      	str	r1, [r7, #8]
    1d5c:	607a      	str	r2, [r7, #4]
/home/sepideh/optee-qemu/optee_os/lib/libutils/isoc/bget.c:1029
    1d5e:	68fb      	ldr	r3, [r7, #12]
    1d60:	617b      	str	r3, [r7, #20]
/home/sepideh/optee-qemu/optee_os/lib/libutils/isoc/bget.c:1033
    1d62:	68bb      	ldr	r3, [r7, #8]
    1d64:	f023 0307 	bic.w	r3, r3, #7
    1d68:	60bb      	str	r3, [r7, #8]
/home/sepideh/optee-qemu/optee_os/lib/libutils/isoc/bget.c:1052
    1d6a:	68bb      	ldr	r3, [r7, #8]
    1d6c:	f1a3 0308 	sub.w	r3, r3, #8
    1d70:	2b00      	cmp	r3, #0
    1d72:	da0b      	bge.n	1d8c <bpool+0x3c>
/home/sepideh/optee-qemu/optee_os/lib/libutils/isoc/bget.c:1052 (discriminator 1)
    1d74:	4b2c      	ldr	r3, [pc, #176]	; (1e28 <bpool+0xd8>)
    1d76:	447b      	add	r3, pc
    1d78:	f240 421c 	movw	r2, #1052	; 0x41c
    1d7c:	492b      	ldr	r1, [pc, #172]	; (1e2c <bpool+0xdc>)
    1d7e:	4479      	add	r1, pc
    1d80:	482b      	ldr	r0, [pc, #172]	; (1e30 <bpool+0xe0>)
    1d82:	4478      	add	r0, pc
    1d84:	f002 f83e 	bl	3e04 <_assert_log>
    1d88:	f002 f860 	bl	3e4c <_assert_break>
/home/sepideh/optee-qemu/optee_os/lib/libutils/isoc/bget.c:1058
    1d8c:	697b      	ldr	r3, [r7, #20]
    1d8e:	f04f 0200 	mov.w	r2, #0
    1d92:	601a      	str	r2, [r3, #0]
/home/sepideh/optee-qemu/optee_os/lib/libutils/isoc/bget.c:1062
    1d94:	687b      	ldr	r3, [r7, #4]
    1d96:	68db      	ldr	r3, [r3, #12]
    1d98:	689a      	ldr	r2, [r3, #8]
    1d9a:	687b      	ldr	r3, [r7, #4]
    1d9c:	429a      	cmp	r2, r3
    1d9e:	d00b      	beq.n	1db8 <bpool+0x68>
/home/sepideh/optee-qemu/optee_os/lib/libutils/isoc/bget.c:1062 (discriminator 1)
    1da0:	4b24      	ldr	r3, [pc, #144]	; (1e34 <bpool+0xe4>)
    1da2:	447b      	add	r3, pc
    1da4:	f240 4226 	movw	r2, #1062	; 0x426
    1da8:	4923      	ldr	r1, [pc, #140]	; (1e38 <bpool+0xe8>)
    1daa:	4479      	add	r1, pc
    1dac:	4823      	ldr	r0, [pc, #140]	; (1e3c <bpool+0xec>)
    1dae:	4478      	add	r0, pc
    1db0:	f002 f828 	bl	3e04 <_assert_log>
    1db4:	f002 f84a 	bl	3e4c <_assert_break>
/home/sepideh/optee-qemu/optee_os/lib/libutils/isoc/bget.c:1063
    1db8:	687b      	ldr	r3, [r7, #4]
    1dba:	689b      	ldr	r3, [r3, #8]
    1dbc:	68da      	ldr	r2, [r3, #12]
    1dbe:	687b      	ldr	r3, [r7, #4]
    1dc0:	429a      	cmp	r2, r3
    1dc2:	d00b      	beq.n	1ddc <bpool+0x8c>
/home/sepideh/optee-qemu/optee_os/lib/libutils/isoc/bget.c:1063 (discriminator 1)
    1dc4:	4b1e      	ldr	r3, [pc, #120]	; (1e40 <bpool+0xf0>)
    1dc6:	447b      	add	r3, pc
    1dc8:	f240 4227 	movw	r2, #1063	; 0x427
    1dcc:	491d      	ldr	r1, [pc, #116]	; (1e44 <bpool+0xf4>)
    1dce:	4479      	add	r1, pc
    1dd0:	481d      	ldr	r0, [pc, #116]	; (1e48 <bpool+0xf8>)
    1dd2:	4478      	add	r0, pc
    1dd4:	f002 f816 	bl	3e04 <_assert_log>
    1dd8:	f002 f838 	bl	3e4c <_assert_break>
/home/sepideh/optee-qemu/optee_os/lib/libutils/isoc/bget.c:1064
    1ddc:	687a      	ldr	r2, [r7, #4]
    1dde:	697b      	ldr	r3, [r7, #20]
    1de0:	609a      	str	r2, [r3, #8]
/home/sepideh/optee-qemu/optee_os/lib/libutils/isoc/bget.c:1065
    1de2:	687b      	ldr	r3, [r7, #4]
    1de4:	68da      	ldr	r2, [r3, #12]
    1de6:	697b      	ldr	r3, [r7, #20]
    1de8:	60da      	str	r2, [r3, #12]
/home/sepideh/optee-qemu/optee_os/lib/libutils/isoc/bget.c:1066
    1dea:	687b      	ldr	r3, [r7, #4]
    1dec:	697a      	ldr	r2, [r7, #20]
    1dee:	60da      	str	r2, [r3, #12]
/home/sepideh/optee-qemu/optee_os/lib/libutils/isoc/bget.c:1067
    1df0:	697b      	ldr	r3, [r7, #20]
    1df2:	68db      	ldr	r3, [r3, #12]
    1df4:	697a      	ldr	r2, [r7, #20]
    1df6:	609a      	str	r2, [r3, #8]
/home/sepideh/optee-qemu/optee_os/lib/libutils/isoc/bget.c:1077
    1df8:	68bb      	ldr	r3, [r7, #8]
    1dfa:	f1a3 0308 	sub.w	r3, r3, #8
    1dfe:	60bb      	str	r3, [r7, #8]
/home/sepideh/optee-qemu/optee_os/lib/libutils/isoc/bget.c:1078
    1e00:	697b      	ldr	r3, [r7, #20]
    1e02:	68ba      	ldr	r2, [r7, #8]
    1e04:	605a      	str	r2, [r3, #4]
/home/sepideh/optee-qemu/optee_os/lib/libutils/isoc/bget.c:1083
    1e06:	68bb      	ldr	r3, [r7, #8]
    1e08:	697a      	ldr	r2, [r7, #20]
    1e0a:	4413      	add	r3, r2
    1e0c:	613b      	str	r3, [r7, #16]
/home/sepideh/optee-qemu/optee_os/lib/libutils/isoc/bget.c:1084
    1e0e:	693b      	ldr	r3, [r7, #16]
    1e10:	68ba      	ldr	r2, [r7, #8]
    1e12:	601a      	str	r2, [r3, #0]
/home/sepideh/optee-qemu/optee_os/lib/libutils/isoc/bget.c:1087
    1e14:	693b      	ldr	r3, [r7, #16]
    1e16:	f04f 4200 	mov.w	r2, #2147483648	; 0x80000000
    1e1a:	605a      	str	r2, [r3, #4]
/home/sepideh/optee-qemu/optee_os/lib/libutils/isoc/bget.c:1088
    1e1c:	bf00      	nop
    1e1e:	f107 0718 	add.w	r7, r7, #24
    1e22:	46bd      	mov	sp, r7
    1e24:	bd80      	pop	{r7, pc}
    1e26:	bf00      	nop
    1e28:	00011a0a 	.word	0x00011a0a
    1e2c:	00011712 	.word	0x00011712
    1e30:	00011966 	.word	0x00011966
    1e34:	000119de 	.word	0x000119de
    1e38:	000116e6 	.word	0x000116e6
    1e3c:	00011832 	.word	0x00011832
    1e40:	000119ba 	.word	0x000119ba
    1e44:	000116c2 	.word	0x000116c2
    1e48:	0001184a 	.word	0x0001184a

00001e4c <bstats>:
bstats():
/home/sepideh/optee-qemu/optee_os/lib/libutils/isoc/bget.c:1098
    1e4c:	e96d 7e02 	strd	r7, lr, [sp, #-8]!
    1e50:	b086      	sub	sp, #24
    1e52:	af00      	add	r7, sp, #0
    1e54:	60f8      	str	r0, [r7, #12]
    1e56:	60b9      	str	r1, [r7, #8]
    1e58:	607a      	str	r2, [r7, #4]
    1e5a:	603b      	str	r3, [r7, #0]
/home/sepideh/optee-qemu/optee_os/lib/libutils/isoc/bget.c:1099
    1e5c:	6a7b      	ldr	r3, [r7, #36]	; 0x24
    1e5e:	689b      	ldr	r3, [r3, #8]
    1e60:	617b      	str	r3, [r7, #20]
/home/sepideh/optee-qemu/optee_os/lib/libutils/isoc/bget.c:1101
    1e62:	6a7b      	ldr	r3, [r7, #36]	; 0x24
    1e64:	695a      	ldr	r2, [r3, #20]
    1e66:	683b      	ldr	r3, [r7, #0]
    1e68:	601a      	str	r2, [r3, #0]
/home/sepideh/optee-qemu/optee_os/lib/libutils/isoc/bget.c:1102
    1e6a:	6a7b      	ldr	r3, [r7, #36]	; 0x24
    1e6c:	699a      	ldr	r2, [r3, #24]
    1e6e:	6a3b      	ldr	r3, [r7, #32]
    1e70:	601a      	str	r2, [r3, #0]
/home/sepideh/optee-qemu/optee_os/lib/libutils/isoc/bget.c:1103
    1e72:	6a7b      	ldr	r3, [r7, #36]	; 0x24
    1e74:	691a      	ldr	r2, [r3, #16]
    1e76:	68fb      	ldr	r3, [r7, #12]
    1e78:	601a      	str	r2, [r3, #0]
/home/sepideh/optee-qemu/optee_os/lib/libutils/isoc/bget.c:1104
    1e7a:	68bb      	ldr	r3, [r7, #8]
    1e7c:	f04f 0200 	mov.w	r2, #0
    1e80:	601a      	str	r2, [r3, #0]
/home/sepideh/optee-qemu/optee_os/lib/libutils/isoc/bget.c:1105
    1e82:	687b      	ldr	r3, [r7, #4]
    1e84:	f04f 32ff 	mov.w	r2, #4294967295	; 0xffffffff
    1e88:	601a      	str	r2, [r3, #0]
/home/sepideh/optee-qemu/optee_os/lib/libutils/isoc/bget.c:1106
    1e8a:	e023      	b.n	1ed4 <bstats+0x88>
/home/sepideh/optee-qemu/optee_os/lib/libutils/isoc/bget.c:1107
    1e8c:	697b      	ldr	r3, [r7, #20]
    1e8e:	685b      	ldr	r3, [r3, #4]
    1e90:	2b00      	cmp	r3, #0
    1e92:	dc0b      	bgt.n	1eac <bstats+0x60>
/home/sepideh/optee-qemu/optee_os/lib/libutils/isoc/bget.c:1107 (discriminator 1)
    1e94:	4b14      	ldr	r3, [pc, #80]	; (1ee8 <bstats+0x9c>)
    1e96:	447b      	add	r3, pc
    1e98:	f240 4253 	movw	r2, #1107	; 0x453
    1e9c:	4913      	ldr	r1, [pc, #76]	; (1eec <bstats+0xa0>)
    1e9e:	4479      	add	r1, pc
    1ea0:	4813      	ldr	r0, [pc, #76]	; (1ef0 <bstats+0xa4>)
    1ea2:	4478      	add	r0, pc
    1ea4:	f001 ffae 	bl	3e04 <_assert_log>
    1ea8:	f001 ffd0 	bl	3e4c <_assert_break>
/home/sepideh/optee-qemu/optee_os/lib/libutils/isoc/bget.c:1108
    1eac:	68bb      	ldr	r3, [r7, #8]
    1eae:	681a      	ldr	r2, [r3, #0]
    1eb0:	697b      	ldr	r3, [r7, #20]
    1eb2:	685b      	ldr	r3, [r3, #4]
    1eb4:	441a      	add	r2, r3
    1eb6:	68bb      	ldr	r3, [r7, #8]
    1eb8:	601a      	str	r2, [r3, #0]
/home/sepideh/optee-qemu/optee_os/lib/libutils/isoc/bget.c:1109
    1eba:	697b      	ldr	r3, [r7, #20]
    1ebc:	685a      	ldr	r2, [r3, #4]
    1ebe:	687b      	ldr	r3, [r7, #4]
    1ec0:	681b      	ldr	r3, [r3, #0]
    1ec2:	429a      	cmp	r2, r3
    1ec4:	dd03      	ble.n	1ece <bstats+0x82>
/home/sepideh/optee-qemu/optee_os/lib/libutils/isoc/bget.c:1110
    1ec6:	697b      	ldr	r3, [r7, #20]
    1ec8:	685a      	ldr	r2, [r3, #4]
    1eca:	687b      	ldr	r3, [r7, #4]
    1ecc:	601a      	str	r2, [r3, #0]
/home/sepideh/optee-qemu/optee_os/lib/libutils/isoc/bget.c:1112
    1ece:	697b      	ldr	r3, [r7, #20]
    1ed0:	689b      	ldr	r3, [r3, #8]
    1ed2:	617b      	str	r3, [r7, #20]
/home/sepideh/optee-qemu/optee_os/lib/libutils/isoc/bget.c:1106
    1ed4:	6a7b      	ldr	r3, [r7, #36]	; 0x24
    1ed6:	697a      	ldr	r2, [r7, #20]
    1ed8:	429a      	cmp	r2, r3
    1eda:	d1d7      	bne.n	1e8c <bstats+0x40>
/home/sepideh/optee-qemu/optee_os/lib/libutils/isoc/bget.c:1114
    1edc:	bf00      	nop
    1ede:	bf00      	nop
    1ee0:	f107 0718 	add.w	r7, r7, #24
    1ee4:	46bd      	mov	sp, r7
    1ee6:	bd80      	pop	{r7, pc}
    1ee8:	000118f2 	.word	0x000118f2
    1eec:	000115f2 	.word	0x000115f2
    1ef0:	0001187e 	.word	0x0001187e

00001ef4 <malloc_lock>:
malloc_lock():
/home/sepideh/optee-qemu/optee_os/lib/libutils/isoc/bget_malloc.c:176
    1ef4:	f84d 7d04 	str.w	r7, [sp, #-4]!
    1ef8:	b083      	sub	sp, #12
    1efa:	af00      	add	r7, sp, #0
    1efc:	6078      	str	r0, [r7, #4]
/home/sepideh/optee-qemu/optee_os/lib/libutils/isoc/bget_malloc.c:177
    1efe:	f04f 0300 	mov.w	r3, #0
/home/sepideh/optee-qemu/optee_os/lib/libutils/isoc/bget_malloc.c:178
    1f02:	4618      	mov	r0, r3
    1f04:	f107 070c 	add.w	r7, r7, #12
    1f08:	46bd      	mov	sp, r7
    1f0a:	f85d 7b04 	ldr.w	r7, [sp], #4
    1f0e:	4770      	bx	lr

00001f10 <malloc_unlock>:
malloc_unlock():
/home/sepideh/optee-qemu/optee_os/lib/libutils/isoc/bget_malloc.c:182
    1f10:	f84d 7d04 	str.w	r7, [sp, #-4]!
    1f14:	b083      	sub	sp, #12
    1f16:	af00      	add	r7, sp, #0
    1f18:	6078      	str	r0, [r7, #4]
    1f1a:	6039      	str	r1, [r7, #0]
/home/sepideh/optee-qemu/optee_os/lib/libutils/isoc/bget_malloc.c:183
    1f1c:	bf00      	nop
    1f1e:	f107 070c 	add.w	r7, r7, #12
    1f22:	46bd      	mov	sp, r7
    1f24:	f85d 7b04 	ldr.w	r7, [sp], #4
    1f28:	4770      	bx	lr

00001f2a <print_oom>:
print_oom():
/home/sepideh/optee-qemu/optee_os/lib/libutils/isoc/bget_malloc.c:199
    1f2a:	f84d 7d04 	str.w	r7, [sp, #-4]!
    1f2e:	b083      	sub	sp, #12
    1f30:	af00      	add	r7, sp, #0
    1f32:	6078      	str	r0, [r7, #4]
    1f34:	6039      	str	r1, [r7, #0]
/home/sepideh/optee-qemu/optee_os/lib/libutils/isoc/bget_malloc.c:204
    1f36:	bf00      	nop
    1f38:	f107 070c 	add.w	r7, r7, #12
    1f3c:	46bd      	mov	sp, r7
    1f3e:	f85d 7b04 	ldr.w	r7, [sp], #4
    1f42:	4770      	bx	lr

00001f44 <raw_malloc_return_hook>:
raw_malloc_return_hook():
/home/sepideh/optee-qemu/optee_os/lib/libutils/isoc/bget_malloc.c:210
    1f44:	e96d 7e02 	strd	r7, lr, [sp, #-8]!
    1f48:	b084      	sub	sp, #16
    1f4a:	af00      	add	r7, sp, #0
    1f4c:	60f8      	str	r0, [r7, #12]
    1f4e:	60b9      	str	r1, [r7, #8]
    1f50:	607a      	str	r2, [r7, #4]
/home/sepideh/optee-qemu/optee_os/lib/libutils/isoc/bget_malloc.c:211
    1f52:	687b      	ldr	r3, [r7, #4]
    1f54:	691b      	ldr	r3, [r3, #16]
    1f56:	461a      	mov	r2, r3
    1f58:	687b      	ldr	r3, [r7, #4]
    1f5a:	6c9b      	ldr	r3, [r3, #72]	; 0x48
    1f5c:	429a      	cmp	r2, r3
    1f5e:	d904      	bls.n	1f6a <raw_malloc_return_hook+0x26>
/home/sepideh/optee-qemu/optee_os/lib/libutils/isoc/bget_malloc.c:212
    1f60:	687b      	ldr	r3, [r7, #4]
    1f62:	691b      	ldr	r3, [r3, #16]
    1f64:	461a      	mov	r2, r3
    1f66:	687b      	ldr	r3, [r7, #4]
    1f68:	649a      	str	r2, [r3, #72]	; 0x48
/home/sepideh/optee-qemu/optee_os/lib/libutils/isoc/bget_malloc.c:214
    1f6a:	68fb      	ldr	r3, [r7, #12]
    1f6c:	2b00      	cmp	r3, #0
    1f6e:	d116      	bne.n	1f9e <raw_malloc_return_hook+0x5a>
/home/sepideh/optee-qemu/optee_os/lib/libutils/isoc/bget_malloc.c:215
    1f70:	687b      	ldr	r3, [r7, #4]
    1f72:	6d1b      	ldr	r3, [r3, #80]	; 0x50
    1f74:	f103 0201 	add.w	r2, r3, #1
    1f78:	687b      	ldr	r3, [r7, #4]
    1f7a:	651a      	str	r2, [r3, #80]	; 0x50
/home/sepideh/optee-qemu/optee_os/lib/libutils/isoc/bget_malloc.c:216
    1f7c:	6879      	ldr	r1, [r7, #4]
    1f7e:	68b8      	ldr	r0, [r7, #8]
    1f80:	f7ff ffd3 	bl	1f2a <print_oom>
/home/sepideh/optee-qemu/optee_os/lib/libutils/isoc/bget_malloc.c:217
    1f84:	687b      	ldr	r3, [r7, #4]
    1f86:	6d5b      	ldr	r3, [r3, #84]	; 0x54
    1f88:	68ba      	ldr	r2, [r7, #8]
    1f8a:	429a      	cmp	r2, r3
    1f8c:	d907      	bls.n	1f9e <raw_malloc_return_hook+0x5a>
/home/sepideh/optee-qemu/optee_os/lib/libutils/isoc/bget_malloc.c:218
    1f8e:	687b      	ldr	r3, [r7, #4]
    1f90:	68ba      	ldr	r2, [r7, #8]
    1f92:	655a      	str	r2, [r3, #84]	; 0x54
/home/sepideh/optee-qemu/optee_os/lib/libutils/isoc/bget_malloc.c:220
    1f94:	687b      	ldr	r3, [r7, #4]
    1f96:	691b      	ldr	r3, [r3, #16]
    1f98:	461a      	mov	r2, r3
/home/sepideh/optee-qemu/optee_os/lib/libutils/isoc/bget_malloc.c:219
    1f9a:	687b      	ldr	r3, [r7, #4]
    1f9c:	659a      	str	r2, [r3, #88]	; 0x58
/home/sepideh/optee-qemu/optee_os/lib/libutils/isoc/bget_malloc.c:223
    1f9e:	bf00      	nop
    1fa0:	f107 0710 	add.w	r7, r7, #16
    1fa4:	46bd      	mov	sp, r7
    1fa6:	bd80      	pop	{r7, pc}

00001fa8 <gen_malloc_reset_stats>:
gen_malloc_reset_stats():
/home/sepideh/optee-qemu/optee_os/lib/libutils/isoc/bget_malloc.c:226
    1fa8:	e96d 7e02 	strd	r7, lr, [sp, #-8]!
    1fac:	b084      	sub	sp, #16
    1fae:	af00      	add	r7, sp, #0
    1fb0:	6078      	str	r0, [r7, #4]
/home/sepideh/optee-qemu/optee_os/lib/libutils/isoc/bget_malloc.c:227
    1fb2:	6878      	ldr	r0, [r7, #4]
    1fb4:	f7ff ff9e 	bl	1ef4 <malloc_lock>
    1fb8:	60f8      	str	r0, [r7, #12]
/home/sepideh/optee-qemu/optee_os/lib/libutils/isoc/bget_malloc.c:229
    1fba:	687b      	ldr	r3, [r7, #4]
    1fbc:	f04f 0200 	mov.w	r2, #0
    1fc0:	649a      	str	r2, [r3, #72]	; 0x48
/home/sepideh/optee-qemu/optee_os/lib/libutils/isoc/bget_malloc.c:230
    1fc2:	687b      	ldr	r3, [r7, #4]
    1fc4:	f04f 0200 	mov.w	r2, #0
    1fc8:	651a      	str	r2, [r3, #80]	; 0x50
/home/sepideh/optee-qemu/optee_os/lib/libutils/isoc/bget_malloc.c:231
    1fca:	687b      	ldr	r3, [r7, #4]
    1fcc:	f04f 0200 	mov.w	r2, #0
    1fd0:	655a      	str	r2, [r3, #84]	; 0x54
/home/sepideh/optee-qemu/optee_os/lib/libutils/isoc/bget_malloc.c:232
    1fd2:	687b      	ldr	r3, [r7, #4]
    1fd4:	f04f 0200 	mov.w	r2, #0
    1fd8:	659a      	str	r2, [r3, #88]	; 0x58
/home/sepideh/optee-qemu/optee_os/lib/libutils/isoc/bget_malloc.c:233
    1fda:	68f9      	ldr	r1, [r7, #12]
    1fdc:	6878      	ldr	r0, [r7, #4]
    1fde:	f7ff ff97 	bl	1f10 <malloc_unlock>
/home/sepideh/optee-qemu/optee_os/lib/libutils/isoc/bget_malloc.c:234
    1fe2:	bf00      	nop
    1fe4:	f107 0710 	add.w	r7, r7, #16
    1fe8:	46bd      	mov	sp, r7
    1fea:	bd80      	pop	{r7, pc}

00001fec <malloc_reset_stats>:
malloc_reset_stats():
/home/sepideh/optee-qemu/optee_os/lib/libutils/isoc/bget_malloc.c:237
    1fec:	e96d 7e02 	strd	r7, lr, [sp, #-8]!
    1ff0:	af00      	add	r7, sp, #0
/home/sepideh/optee-qemu/optee_os/lib/libutils/isoc/bget_malloc.c:238
    1ff2:	4b04      	ldr	r3, [pc, #16]	; (2004 <malloc_reset_stats+0x18>)
    1ff4:	447b      	add	r3, pc
    1ff6:	4618      	mov	r0, r3
    1ff8:	f7ff ffd6 	bl	1fa8 <gen_malloc_reset_stats>
/home/sepideh/optee-qemu/optee_os/lib/libutils/isoc/bget_malloc.c:239
    1ffc:	bf00      	nop
    1ffe:	46bd      	mov	sp, r7
    2000:	bd80      	pop	{r7, pc}
    2002:	bf00      	nop
    2004:	000142c4 	.word	0x000142c4

00002008 <gen_malloc_get_stats>:
gen_malloc_get_stats():
/home/sepideh/optee-qemu/optee_os/lib/libutils/isoc/bget_malloc.c:243
    2008:	e96d 7e02 	strd	r7, lr, [sp, #-8]!
    200c:	b084      	sub	sp, #16
    200e:	af00      	add	r7, sp, #0
    2010:	6078      	str	r0, [r7, #4]
    2012:	6039      	str	r1, [r7, #0]
/home/sepideh/optee-qemu/optee_os/lib/libutils/isoc/bget_malloc.c:244
    2014:	6878      	ldr	r0, [r7, #4]
    2016:	f7ff ff6d 	bl	1ef4 <malloc_lock>
    201a:	60f8      	str	r0, [r7, #12]
/home/sepideh/optee-qemu/optee_os/lib/libutils/isoc/bget_malloc.c:246
    201c:	687b      	ldr	r3, [r7, #4]
    201e:	f103 0324 	add.w	r3, r3, #36	; 0x24
    2022:	f04f 0238 	mov.w	r2, #56	; 0x38
    2026:	4619      	mov	r1, r3
    2028:	6838      	ldr	r0, [r7, #0]
    202a:	f7ff faff 	bl	162c <memcpy_unchecked>
/home/sepideh/optee-qemu/optee_os/lib/libutils/isoc/bget_malloc.c:247
    202e:	687b      	ldr	r3, [r7, #4]
    2030:	691b      	ldr	r3, [r3, #16]
    2032:	461a      	mov	r2, r3
    2034:	683b      	ldr	r3, [r7, #0]
    2036:	621a      	str	r2, [r3, #32]
/home/sepideh/optee-qemu/optee_os/lib/libutils/isoc/bget_malloc.c:248
    2038:	68f9      	ldr	r1, [r7, #12]
    203a:	6878      	ldr	r0, [r7, #4]
    203c:	f7ff ff68 	bl	1f10 <malloc_unlock>
/home/sepideh/optee-qemu/optee_os/lib/libutils/isoc/bget_malloc.c:249
    2040:	bf00      	nop
    2042:	f107 0710 	add.w	r7, r7, #16
    2046:	46bd      	mov	sp, r7
    2048:	bd80      	pop	{r7, pc}

0000204a <malloc_get_stats>:
malloc_get_stats():
/home/sepideh/optee-qemu/optee_os/lib/libutils/isoc/bget_malloc.c:252
    204a:	e96d 7e02 	strd	r7, lr, [sp, #-8]!
    204e:	b082      	sub	sp, #8
    2050:	af00      	add	r7, sp, #0
    2052:	6078      	str	r0, [r7, #4]
/home/sepideh/optee-qemu/optee_os/lib/libutils/isoc/bget_malloc.c:253
    2054:	6879      	ldr	r1, [r7, #4]
    2056:	4b05      	ldr	r3, [pc, #20]	; (206c <malloc_get_stats+0x22>)
    2058:	447b      	add	r3, pc
    205a:	4618      	mov	r0, r3
    205c:	f7ff ffd4 	bl	2008 <gen_malloc_get_stats>
/home/sepideh/optee-qemu/optee_os/lib/libutils/isoc/bget_malloc.c:254
    2060:	bf00      	nop
    2062:	f107 0708 	add.w	r7, r7, #8
    2066:	46bd      	mov	sp, r7
    2068:	bd80      	pop	{r7, pc}
    206a:	bf00      	nop
    206c:	00014260 	.word	0x00014260

00002070 <raw_malloc_validate_pools>:
raw_malloc_validate_pools():
/home/sepideh/optee-qemu/optee_os/lib/libutils/isoc/bget_malloc.c:277
    2070:	f84d 7d04 	str.w	r7, [sp, #-4]!
    2074:	b083      	sub	sp, #12
    2076:	af00      	add	r7, sp, #0
    2078:	6078      	str	r0, [r7, #4]
/home/sepideh/optee-qemu/optee_os/lib/libutils/isoc/bget_malloc.c:278
    207a:	bf00      	nop
    207c:	f107 070c 	add.w	r7, r7, #12
    2080:	46bd      	mov	sp, r7
    2082:	f85d 7b04 	ldr.w	r7, [sp], #4
    2086:	4770      	bx	lr

00002088 <bpool_foreach_iterator_init>:
bpool_foreach_iterator_init():
/home/sepideh/optee-qemu/optee_os/lib/libutils/isoc/bget_malloc.c:288
    2088:	f84d 7d04 	str.w	r7, [sp, #-4]!
    208c:	b083      	sub	sp, #12
    208e:	af00      	add	r7, sp, #0
    2090:	6078      	str	r0, [r7, #4]
    2092:	6039      	str	r1, [r7, #0]
/home/sepideh/optee-qemu/optee_os/lib/libutils/isoc/bget_malloc.c:289
    2094:	683b      	ldr	r3, [r7, #0]
    2096:	f04f 0200 	mov.w	r2, #0
    209a:	605a      	str	r2, [r3, #4]
/home/sepideh/optee-qemu/optee_os/lib/libutils/isoc/bget_malloc.c:290
    209c:	687b      	ldr	r3, [r7, #4]
    209e:	69db      	ldr	r3, [r3, #28]
    20a0:	681a      	ldr	r2, [r3, #0]
    20a2:	683b      	ldr	r3, [r7, #0]
    20a4:	601a      	str	r2, [r3, #0]
/home/sepideh/optee-qemu/optee_os/lib/libutils/isoc/bget_malloc.c:291
    20a6:	bf00      	nop
    20a8:	f107 070c 	add.w	r7, r7, #12
    20ac:	46bd      	mov	sp, r7
    20ae:	f85d 7b04 	ldr.w	r7, [sp], #4
    20b2:	4770      	bx	lr

000020b4 <bpool_foreach_pool>:
bpool_foreach_pool():
/home/sepideh/optee-qemu/optee_os/lib/libutils/isoc/bget_malloc.c:295
    20b4:	e96d 7e02 	strd	r7, lr, [sp, #-8]!
    20b8:	b086      	sub	sp, #24
    20ba:	af00      	add	r7, sp, #0
    20bc:	60f8      	str	r0, [r7, #12]
    20be:	60b9      	str	r1, [r7, #8]
    20c0:	607a      	str	r2, [r7, #4]
    20c2:	603b      	str	r3, [r7, #0]
/home/sepideh/optee-qemu/optee_os/lib/libutils/isoc/bget_malloc.c:296
    20c4:	68fb      	ldr	r3, [r7, #12]
    20c6:	681b      	ldr	r3, [r3, #0]
    20c8:	613b      	str	r3, [r7, #16]
/home/sepideh/optee-qemu/optee_os/lib/libutils/isoc/bget_malloc.c:297
    20ca:	693b      	ldr	r3, [r7, #16]
    20cc:	685b      	ldr	r3, [r3, #4]
    20ce:	617b      	str	r3, [r7, #20]
/home/sepideh/optee-qemu/optee_os/lib/libutils/isoc/bget_malloc.c:299
    20d0:	697b      	ldr	r3, [r7, #20]
    20d2:	f1b3 4f00 	cmp.w	r3, #2147483648	; 0x80000000
    20d6:	d102      	bne.n	20de <bpool_foreach_pool+0x2a>
/home/sepideh/optee-qemu/optee_os/lib/libutils/isoc/bget_malloc.c:300
    20d8:	f04f 0300 	mov.w	r3, #0
    20dc:	e044      	b.n	2168 <bpool_foreach_pool+0xb4>
/home/sepideh/optee-qemu/optee_os/lib/libutils/isoc/bget_malloc.c:302
    20de:	697b      	ldr	r3, [r7, #20]
    20e0:	2b00      	cmp	r3, #0
    20e2:	da08      	bge.n	20f6 <bpool_foreach_pool+0x42>
/home/sepideh/optee-qemu/optee_os/lib/libutils/isoc/bget_malloc.c:304
    20e4:	697b      	ldr	r3, [r7, #20]
    20e6:	f1c3 0300 	rsb	r3, r3, #0
    20ea:	617b      	str	r3, [r7, #20]
/home/sepideh/optee-qemu/optee_os/lib/libutils/isoc/bget_malloc.c:306
    20ec:	683b      	ldr	r3, [r7, #0]
    20ee:	f04f 0200 	mov.w	r2, #0
    20f2:	701a      	strb	r2, [r3, #0]
    20f4:	e027      	b.n	2146 <bpool_foreach_pool+0x92>
/home/sepideh/optee-qemu/optee_os/lib/libutils/isoc/bget_malloc.c:309
    20f6:	683b      	ldr	r3, [r7, #0]
    20f8:	f04f 0201 	mov.w	r2, #1
    20fc:	701a      	strb	r2, [r3, #0]
/home/sepideh/optee-qemu/optee_os/lib/libutils/isoc/bget_malloc.c:312
    20fe:	693b      	ldr	r3, [r7, #16]
    2100:	68db      	ldr	r3, [r3, #12]
    2102:	689b      	ldr	r3, [r3, #8]
    2104:	693a      	ldr	r2, [r7, #16]
    2106:	429a      	cmp	r2, r3
    2108:	d00b      	beq.n	2122 <bpool_foreach_pool+0x6e>
/home/sepideh/optee-qemu/optee_os/lib/libutils/isoc/bget_malloc.c:312 (discriminator 1)
    210a:	4b1a      	ldr	r3, [pc, #104]	; (2174 <bpool_foreach_pool+0xc0>)
    210c:	447b      	add	r3, pc
    210e:	f44f 729c 	mov.w	r2, #312	; 0x138
    2112:	4919      	ldr	r1, [pc, #100]	; (2178 <bpool_foreach_pool+0xc4>)
    2114:	4479      	add	r1, pc
    2116:	4819      	ldr	r0, [pc, #100]	; (217c <bpool_foreach_pool+0xc8>)
    2118:	4478      	add	r0, pc
    211a:	f001 fe73 	bl	3e04 <_assert_log>
    211e:	f001 fe95 	bl	3e4c <_assert_break>
/home/sepideh/optee-qemu/optee_os/lib/libutils/isoc/bget_malloc.c:313
    2122:	693b      	ldr	r3, [r7, #16]
    2124:	689b      	ldr	r3, [r3, #8]
    2126:	68db      	ldr	r3, [r3, #12]
    2128:	693a      	ldr	r2, [r7, #16]
    212a:	429a      	cmp	r2, r3
    212c:	d00b      	beq.n	2146 <bpool_foreach_pool+0x92>
/home/sepideh/optee-qemu/optee_os/lib/libutils/isoc/bget_malloc.c:313 (discriminator 1)
    212e:	4b14      	ldr	r3, [pc, #80]	; (2180 <bpool_foreach_pool+0xcc>)
    2130:	447b      	add	r3, pc
    2132:	f240 1239 	movw	r2, #313	; 0x139
    2136:	4913      	ldr	r1, [pc, #76]	; (2184 <bpool_foreach_pool+0xd0>)
    2138:	4479      	add	r1, pc
    213a:	4813      	ldr	r0, [pc, #76]	; (2188 <bpool_foreach_pool+0xd4>)
    213c:	4478      	add	r0, pc
    213e:	f001 fe61 	bl	3e04 <_assert_log>
    2142:	f001 fe83 	bl	3e4c <_assert_break>
/home/sepideh/optee-qemu/optee_os/lib/libutils/isoc/bget_malloc.c:316
    2146:	693b      	ldr	r3, [r7, #16]
    2148:	f103 0208 	add.w	r2, r3, #8
    214c:	68bb      	ldr	r3, [r7, #8]
    214e:	601a      	str	r2, [r3, #0]
/home/sepideh/optee-qemu/optee_os/lib/libutils/isoc/bget_malloc.c:317
    2150:	697b      	ldr	r3, [r7, #20]
    2152:	f1a3 0208 	sub.w	r2, r3, #8
    2156:	687b      	ldr	r3, [r7, #4]
    2158:	601a      	str	r2, [r3, #0]
/home/sepideh/optee-qemu/optee_os/lib/libutils/isoc/bget_malloc.c:319
    215a:	697b      	ldr	r3, [r7, #20]
    215c:	693a      	ldr	r2, [r7, #16]
    215e:	441a      	add	r2, r3
    2160:	68fb      	ldr	r3, [r7, #12]
    2162:	601a      	str	r2, [r3, #0]
/home/sepideh/optee-qemu/optee_os/lib/libutils/isoc/bget_malloc.c:320
    2164:	f04f 0301 	mov.w	r3, #1
/home/sepideh/optee-qemu/optee_os/lib/libutils/isoc/bget_malloc.c:321
    2168:	4618      	mov	r0, r3
    216a:	f107 0718 	add.w	r7, r7, #24
    216e:	46bd      	mov	sp, r7
    2170:	bd80      	pop	{r7, pc}
    2172:	bf00      	nop
    2174:	00011684 	.word	0x00011684
    2178:	0001161c 	.word	0x0001161c
    217c:	000113d8 	.word	0x000113d8
    2180:	00011660 	.word	0x00011660
    2184:	000115f8 	.word	0x000115f8
    2188:	000113d0 	.word	0x000113d0

0000218c <bpool_foreach>:
bpool_foreach():
/home/sepideh/optee-qemu/optee_os/lib/libutils/isoc/bget_malloc.c:325
    218c:	e96d 7e02 	strd	r7, lr, [sp, #-8]!
    2190:	b086      	sub	sp, #24
    2192:	af00      	add	r7, sp, #0
    2194:	60f8      	str	r0, [r7, #12]
    2196:	60b9      	str	r1, [r7, #8]
    2198:	607a      	str	r2, [r7, #4]
/home/sepideh/optee-qemu/optee_os/lib/libutils/isoc/bget_malloc.c:330
    219a:	f107 0313 	add.w	r3, r7, #19
    219e:	f107 0214 	add.w	r2, r7, #20
    21a2:	6879      	ldr	r1, [r7, #4]
    21a4:	68b8      	ldr	r0, [r7, #8]
    21a6:	f7ff ff85 	bl	20b4 <bpool_foreach_pool>
    21aa:	4603      	mov	r3, r0
    21ac:	2b00      	cmp	r3, #0
    21ae:	d005      	beq.n	21bc <bpool_foreach+0x30>
/home/sepideh/optee-qemu/optee_os/lib/libutils/isoc/bget_malloc.c:331
    21b0:	7cfb      	ldrb	r3, [r7, #19]
    21b2:	2b00      	cmp	r3, #0
    21b4:	d11e      	bne.n	21f4 <bpool_foreach+0x68>
/home/sepideh/optee-qemu/optee_os/lib/libutils/isoc/bget_malloc.c:333
    21b6:	f04f 0301 	mov.w	r3, #1
    21ba:	e01d      	b.n	21f8 <bpool_foreach+0x6c>
/home/sepideh/optee-qemu/optee_os/lib/libutils/isoc/bget_malloc.c:336
    21bc:	68bb      	ldr	r3, [r7, #8]
    21be:	685b      	ldr	r3, [r3, #4]
    21c0:	f103 0201 	add.w	r2, r3, #1
    21c4:	68fb      	ldr	r3, [r7, #12]
    21c6:	6a1b      	ldr	r3, [r3, #32]
    21c8:	429a      	cmp	r2, r3
    21ca:	d302      	bcc.n	21d2 <bpool_foreach+0x46>
/home/sepideh/optee-qemu/optee_os/lib/libutils/isoc/bget_malloc.c:337
    21cc:	f04f 0300 	mov.w	r3, #0
    21d0:	e012      	b.n	21f8 <bpool_foreach+0x6c>
/home/sepideh/optee-qemu/optee_os/lib/libutils/isoc/bget_malloc.c:339
    21d2:	68bb      	ldr	r3, [r7, #8]
    21d4:	685b      	ldr	r3, [r3, #4]
    21d6:	f103 0201 	add.w	r2, r3, #1
    21da:	68bb      	ldr	r3, [r7, #8]
    21dc:	605a      	str	r2, [r3, #4]
/home/sepideh/optee-qemu/optee_os/lib/libutils/isoc/bget_malloc.c:340
    21de:	68fb      	ldr	r3, [r7, #12]
    21e0:	69da      	ldr	r2, [r3, #28]
    21e2:	68bb      	ldr	r3, [r7, #8]
    21e4:	685b      	ldr	r3, [r3, #4]
    21e6:	ea4f 03c3 	mov.w	r3, r3, lsl #3
    21ea:	4413      	add	r3, r2
    21ec:	681a      	ldr	r2, [r3, #0]
    21ee:	68bb      	ldr	r3, [r7, #8]
    21f0:	601a      	str	r2, [r3, #0]
    21f2:	e7d2      	b.n	219a <bpool_foreach+0xe>
/home/sepideh/optee-qemu/optee_os/lib/libutils/isoc/bget_malloc.c:332
    21f4:	bf00      	nop
/home/sepideh/optee-qemu/optee_os/lib/libutils/isoc/bget_malloc.c:326
    21f6:	e7d0      	b.n	219a <bpool_foreach+0xe>
/home/sepideh/optee-qemu/optee_os/lib/libutils/isoc/bget_malloc.c:342
    21f8:	4618      	mov	r0, r3
    21fa:	f107 0718 	add.w	r7, r7, #24
    21fe:	46bd      	mov	sp, r7
    2200:	bd80      	pop	{r7, pc}

00002202 <raw_malloc>:
raw_malloc():
/home/sepideh/optee-qemu/optee_os/lib/libutils/isoc/bget_malloc.c:351
    2202:	e96d 7e02 	strd	r7, lr, [sp, #-8]!
    2206:	b086      	sub	sp, #24
    2208:	af00      	add	r7, sp, #0
    220a:	60f8      	str	r0, [r7, #12]
    220c:	60b9      	str	r1, [r7, #8]
    220e:	607a      	str	r2, [r7, #4]
    2210:	603b      	str	r3, [r7, #0]
/home/sepideh/optee-qemu/optee_os/lib/libutils/isoc/bget_malloc.c:352
    2212:	f04f 0300 	mov.w	r3, #0
    2216:	617b      	str	r3, [r7, #20]
/home/sepideh/optee-qemu/optee_os/lib/libutils/isoc/bget_malloc.c:360
    2218:	bf00      	nop
/home/sepideh/optee-qemu/optee_os/lib/libutils/isoc/bget_malloc.c:362
    221a:	6838      	ldr	r0, [r7, #0]
    221c:	f7ff ff28 	bl	2070 <raw_malloc_validate_pools>
/home/sepideh/optee-qemu/optee_os/lib/libutils/isoc/bget_malloc.c:365
    2220:	f04f 0100 	mov.w	r1, #0
    2224:	687a      	ldr	r2, [r7, #4]
    2226:	68fb      	ldr	r3, [r7, #12]
    2228:	4413      	add	r3, r2
    222a:	2b00      	cmp	r3, #0
    222c:	db02      	blt.n	2234 <raw_malloc+0x32>
    222e:	68fa      	ldr	r2, [r7, #12]
    2230:	4293      	cmp	r3, r2
    2232:	d201      	bcs.n	2238 <raw_malloc+0x36>
    2234:	f04f 0101 	mov.w	r1, #1
    2238:	613b      	str	r3, [r7, #16]
    223a:	460b      	mov	r3, r1
    223c:	f003 0301 	and.w	r3, r3, #1
    2240:	b2db      	uxtb	r3, r3
    2242:	2b00      	cmp	r3, #0
    2244:	d121      	bne.n	228a <raw_malloc+0x88>
/home/sepideh/optee-qemu/optee_os/lib/libutils/isoc/bget_malloc.c:367
    2246:	693a      	ldr	r2, [r7, #16]
    2248:	f04f 0000 	mov.w	r0, #0
    224c:	68bb      	ldr	r3, [r7, #8]
    224e:	4413      	add	r3, r2
    2250:	f103 4100 	add.w	r1, r3, #2147483648	; 0x80000000
    2254:	68ba      	ldr	r2, [r7, #8]
    2256:	4291      	cmp	r1, r2
    2258:	d201      	bcs.n	225e <raw_malloc+0x5c>
    225a:	f04f 0001 	mov.w	r0, #1
    225e:	613b      	str	r3, [r7, #16]
    2260:	4603      	mov	r3, r0
    2262:	f003 0301 	and.w	r3, r3, #1
    2266:	b2db      	uxtb	r3, r3
    2268:	2b00      	cmp	r3, #0
    226a:	d110      	bne.n	228e <raw_malloc+0x8c>
/home/sepideh/optee-qemu/optee_os/lib/libutils/isoc/bget_malloc.c:371
    226c:	693b      	ldr	r3, [r7, #16]
    226e:	2b00      	cmp	r3, #0
    2270:	d103      	bne.n	227a <raw_malloc+0x78>
/home/sepideh/optee-qemu/optee_os/lib/libutils/isoc/bget_malloc.c:372
    2272:	693b      	ldr	r3, [r7, #16]
    2274:	f103 0301 	add.w	r3, r3, #1
    2278:	613b      	str	r3, [r7, #16]
/home/sepideh/optee-qemu/optee_os/lib/libutils/isoc/bget_malloc.c:374
    227a:	693b      	ldr	r3, [r7, #16]
    227c:	683a      	ldr	r2, [r7, #0]
    227e:	4611      	mov	r1, r2
    2280:	4618      	mov	r0, r3
    2282:	f7ff f9e5 	bl	1650 <bget>
    2286:	6178      	str	r0, [r7, #20]
    2288:	e002      	b.n	2290 <raw_malloc+0x8e>
/home/sepideh/optee-qemu/optee_os/lib/libutils/isoc/bget_malloc.c:366
    228a:	bf00      	nop
    228c:	e000      	b.n	2290 <raw_malloc+0x8e>
/home/sepideh/optee-qemu/optee_os/lib/libutils/isoc/bget_malloc.c:368
    228e:	bf00      	nop
/home/sepideh/optee-qemu/optee_os/lib/libutils/isoc/bget_malloc.c:376
    2290:	683a      	ldr	r2, [r7, #0]
    2292:	6879      	ldr	r1, [r7, #4]
    2294:	6978      	ldr	r0, [r7, #20]
    2296:	f7ff fe55 	bl	1f44 <raw_malloc_return_hook>
/home/sepideh/optee-qemu/optee_os/lib/libutils/isoc/bget_malloc.c:378
    229a:	697b      	ldr	r3, [r7, #20]
/home/sepideh/optee-qemu/optee_os/lib/libutils/isoc/bget_malloc.c:379
    229c:	4618      	mov	r0, r3
    229e:	f107 0718 	add.w	r7, r7, #24
    22a2:	46bd      	mov	sp, r7
    22a4:	bd80      	pop	{r7, pc}

000022a6 <raw_free>:
raw_free():
/home/sepideh/optee-qemu/optee_os/lib/libutils/isoc/bget_malloc.c:382
    22a6:	e96d 7e02 	strd	r7, lr, [sp, #-8]!
    22aa:	b084      	sub	sp, #16
    22ac:	af00      	add	r7, sp, #0
    22ae:	60f8      	str	r0, [r7, #12]
    22b0:	60b9      	str	r1, [r7, #8]
    22b2:	4613      	mov	r3, r2
    22b4:	71fb      	strb	r3, [r7, #7]
/home/sepideh/optee-qemu/optee_os/lib/libutils/isoc/bget_malloc.c:383
    22b6:	68b8      	ldr	r0, [r7, #8]
    22b8:	f7ff feda 	bl	2070 <raw_malloc_validate_pools>
/home/sepideh/optee-qemu/optee_os/lib/libutils/isoc/bget_malloc.c:385
    22bc:	68fb      	ldr	r3, [r7, #12]
    22be:	2b00      	cmp	r3, #0
    22c0:	d005      	beq.n	22ce <raw_free+0x28>
/home/sepideh/optee-qemu/optee_os/lib/libutils/isoc/bget_malloc.c:386
    22c2:	68bb      	ldr	r3, [r7, #8]
    22c4:	79fa      	ldrb	r2, [r7, #7]
    22c6:	4619      	mov	r1, r3
    22c8:	68f8      	ldr	r0, [r7, #12]
    22ca:	f7ff fba5 	bl	1a18 <brel>
/home/sepideh/optee-qemu/optee_os/lib/libutils/isoc/bget_malloc.c:387
    22ce:	bf00      	nop
    22d0:	f107 0710 	add.w	r7, r7, #16
    22d4:	46bd      	mov	sp, r7
    22d6:	bd80      	pop	{r7, pc}

000022d8 <raw_calloc>:
raw_calloc():
/home/sepideh/optee-qemu/optee_os/lib/libutils/isoc/bget_malloc.c:391
    22d8:	f84d 4d0c 	str.w	r4, [sp, #-12]!
    22dc:	e9cd 7e01 	strd	r7, lr, [sp, #4]
    22e0:	b087      	sub	sp, #28
    22e2:	af00      	add	r7, sp, #0
    22e4:	60f8      	str	r0, [r7, #12]
    22e6:	60b9      	str	r1, [r7, #8]
    22e8:	607a      	str	r2, [r7, #4]
    22ea:	603b      	str	r3, [r7, #0]
/home/sepideh/optee-qemu/optee_os/lib/libutils/isoc/bget_malloc.c:392
    22ec:	f04f 0300 	mov.w	r3, #0
    22f0:	617b      	str	r3, [r7, #20]
/home/sepideh/optee-qemu/optee_os/lib/libutils/isoc/bget_malloc.c:395
    22f2:	6ab8      	ldr	r0, [r7, #40]	; 0x28
    22f4:	f7ff febc 	bl	2070 <raw_malloc_validate_pools>
/home/sepideh/optee-qemu/optee_os/lib/libutils/isoc/bget_malloc.c:398
    22f8:	f04f 0400 	mov.w	r4, #0
    22fc:	687a      	ldr	r2, [r7, #4]
    22fe:	683b      	ldr	r3, [r7, #0]
    2300:	fba2 2303 	umull	r2, r3, r2, r3
    2304:	f04f 0000 	mov.w	r0, #0
    2308:	f04f 0100 	mov.w	r1, #0
    230c:	4618      	mov	r0, r3
    230e:	f04f 0100 	mov.w	r1, #0
    2312:	2800      	cmp	r0, #0
    2314:	d001      	beq.n	231a <raw_calloc+0x42>
    2316:	f04f 0401 	mov.w	r4, #1
    231a:	2a00      	cmp	r2, #0
    231c:	da01      	bge.n	2322 <raw_calloc+0x4a>
    231e:	f04f 0401 	mov.w	r4, #1
    2322:	4613      	mov	r3, r2
    2324:	613b      	str	r3, [r7, #16]
    2326:	4623      	mov	r3, r4
    2328:	f003 0301 	and.w	r3, r3, #1
    232c:	b2db      	uxtb	r3, r3
    232e:	2b00      	cmp	r3, #0
    2330:	d134      	bne.n	239c <raw_calloc+0xc4>
/home/sepideh/optee-qemu/optee_os/lib/libutils/isoc/bget_malloc.c:400
    2332:	693a      	ldr	r2, [r7, #16]
    2334:	f04f 0000 	mov.w	r0, #0
    2338:	68fb      	ldr	r3, [r7, #12]
    233a:	4413      	add	r3, r2
    233c:	f103 4100 	add.w	r1, r3, #2147483648	; 0x80000000
    2340:	68fa      	ldr	r2, [r7, #12]
    2342:	4291      	cmp	r1, r2
    2344:	d201      	bcs.n	234a <raw_calloc+0x72>
    2346:	f04f 0001 	mov.w	r0, #1
    234a:	613b      	str	r3, [r7, #16]
    234c:	4603      	mov	r3, r0
    234e:	f003 0301 	and.w	r3, r3, #1
    2352:	b2db      	uxtb	r3, r3
    2354:	2b00      	cmp	r3, #0
    2356:	d123      	bne.n	23a0 <raw_calloc+0xc8>
/home/sepideh/optee-qemu/optee_os/lib/libutils/isoc/bget_malloc.c:402
    2358:	693a      	ldr	r2, [r7, #16]
    235a:	f04f 0000 	mov.w	r0, #0
    235e:	68bb      	ldr	r3, [r7, #8]
    2360:	4413      	add	r3, r2
    2362:	f103 4100 	add.w	r1, r3, #2147483648	; 0x80000000
    2366:	68ba      	ldr	r2, [r7, #8]
    2368:	4291      	cmp	r1, r2
    236a:	d201      	bcs.n	2370 <raw_calloc+0x98>
    236c:	f04f 0001 	mov.w	r0, #1
    2370:	613b      	str	r3, [r7, #16]
    2372:	4603      	mov	r3, r0
    2374:	f003 0301 	and.w	r3, r3, #1
    2378:	b2db      	uxtb	r3, r3
    237a:	2b00      	cmp	r3, #0
    237c:	d112      	bne.n	23a4 <raw_calloc+0xcc>
/home/sepideh/optee-qemu/optee_os/lib/libutils/isoc/bget_malloc.c:406
    237e:	693b      	ldr	r3, [r7, #16]
    2380:	2b00      	cmp	r3, #0
    2382:	d103      	bne.n	238c <raw_calloc+0xb4>
/home/sepideh/optee-qemu/optee_os/lib/libutils/isoc/bget_malloc.c:407
    2384:	693b      	ldr	r3, [r7, #16]
    2386:	f103 0301 	add.w	r3, r3, #1
    238a:	613b      	str	r3, [r7, #16]
/home/sepideh/optee-qemu/optee_os/lib/libutils/isoc/bget_malloc.c:409
    238c:	693b      	ldr	r3, [r7, #16]
    238e:	6aba      	ldr	r2, [r7, #40]	; 0x28
    2390:	4611      	mov	r1, r2
    2392:	4618      	mov	r0, r3
    2394:	f7ff fa94 	bl	18c0 <bgetz>
    2398:	6178      	str	r0, [r7, #20]
    239a:	e004      	b.n	23a6 <raw_calloc+0xce>
/home/sepideh/optee-qemu/optee_os/lib/libutils/isoc/bget_malloc.c:399
    239c:	bf00      	nop
    239e:	e002      	b.n	23a6 <raw_calloc+0xce>
/home/sepideh/optee-qemu/optee_os/lib/libutils/isoc/bget_malloc.c:401
    23a0:	bf00      	nop
    23a2:	e000      	b.n	23a6 <raw_calloc+0xce>
/home/sepideh/optee-qemu/optee_os/lib/libutils/isoc/bget_malloc.c:403
    23a4:	bf00      	nop
/home/sepideh/optee-qemu/optee_os/lib/libutils/isoc/bget_malloc.c:411
    23a6:	687b      	ldr	r3, [r7, #4]
    23a8:	683a      	ldr	r2, [r7, #0]
    23aa:	fb02 f303 	mul.w	r3, r2, r3
    23ae:	6aba      	ldr	r2, [r7, #40]	; 0x28
    23b0:	4619      	mov	r1, r3
    23b2:	6978      	ldr	r0, [r7, #20]
    23b4:	f7ff fdc6 	bl	1f44 <raw_malloc_return_hook>
/home/sepideh/optee-qemu/optee_os/lib/libutils/isoc/bget_malloc.c:413
    23b8:	697b      	ldr	r3, [r7, #20]
/home/sepideh/optee-qemu/optee_os/lib/libutils/isoc/bget_malloc.c:414
    23ba:	4618      	mov	r0, r3
    23bc:	f107 071c 	add.w	r7, r7, #28
    23c0:	46bd      	mov	sp, r7
    23c2:	e9dd 4700 	ldrd	r4, r7, [sp]
    23c6:	b002      	add	sp, #8
    23c8:	f85d fb04 	ldr.w	pc, [sp], #4

000023cc <raw_realloc>:
raw_realloc():
/home/sepideh/optee-qemu/optee_os/lib/libutils/isoc/bget_malloc.c:418
    23cc:	e96d 7e02 	strd	r7, lr, [sp, #-8]!
    23d0:	b086      	sub	sp, #24
    23d2:	af00      	add	r7, sp, #0
    23d4:	60f8      	str	r0, [r7, #12]
    23d6:	60b9      	str	r1, [r7, #8]
    23d8:	607a      	str	r2, [r7, #4]
    23da:	603b      	str	r3, [r7, #0]
/home/sepideh/optee-qemu/optee_os/lib/libutils/isoc/bget_malloc.c:419
    23dc:	f04f 0300 	mov.w	r3, #0
    23e0:	617b      	str	r3, [r7, #20]
/home/sepideh/optee-qemu/optee_os/lib/libutils/isoc/bget_malloc.c:423
    23e2:	f04f 0100 	mov.w	r1, #0
    23e6:	683a      	ldr	r2, [r7, #0]
    23e8:	68bb      	ldr	r3, [r7, #8]
    23ea:	4413      	add	r3, r2
    23ec:	2b00      	cmp	r3, #0
    23ee:	db02      	blt.n	23f6 <raw_realloc+0x2a>
    23f0:	68ba      	ldr	r2, [r7, #8]
    23f2:	4293      	cmp	r3, r2
    23f4:	d201      	bcs.n	23fa <raw_realloc+0x2e>
    23f6:	f04f 0101 	mov.w	r1, #1
    23fa:	613b      	str	r3, [r7, #16]
    23fc:	460b      	mov	r3, r1
    23fe:	f003 0301 	and.w	r3, r3, #1
    2402:	b2db      	uxtb	r3, r3
    2404:	2b00      	cmp	r3, #0
    2406:	d124      	bne.n	2452 <raw_realloc+0x86>
/home/sepideh/optee-qemu/optee_os/lib/libutils/isoc/bget_malloc.c:425
    2408:	693a      	ldr	r2, [r7, #16]
    240a:	f04f 0000 	mov.w	r0, #0
    240e:	687b      	ldr	r3, [r7, #4]
    2410:	4413      	add	r3, r2
    2412:	f103 4100 	add.w	r1, r3, #2147483648	; 0x80000000
    2416:	687a      	ldr	r2, [r7, #4]
    2418:	4291      	cmp	r1, r2
    241a:	d201      	bcs.n	2420 <raw_realloc+0x54>
    241c:	f04f 0001 	mov.w	r0, #1
    2420:	613b      	str	r3, [r7, #16]
    2422:	4603      	mov	r3, r0
    2424:	f003 0301 	and.w	r3, r3, #1
    2428:	b2db      	uxtb	r3, r3
    242a:	2b00      	cmp	r3, #0
    242c:	d113      	bne.n	2456 <raw_realloc+0x8a>
/home/sepideh/optee-qemu/optee_os/lib/libutils/isoc/bget_malloc.c:428
    242e:	6a38      	ldr	r0, [r7, #32]
    2430:	f7ff fe1e 	bl	2070 <raw_malloc_validate_pools>
/home/sepideh/optee-qemu/optee_os/lib/libutils/isoc/bget_malloc.c:431
    2434:	693b      	ldr	r3, [r7, #16]
    2436:	2b00      	cmp	r3, #0
    2438:	d103      	bne.n	2442 <raw_realloc+0x76>
/home/sepideh/optee-qemu/optee_os/lib/libutils/isoc/bget_malloc.c:432
    243a:	693b      	ldr	r3, [r7, #16]
    243c:	f103 0301 	add.w	r3, r3, #1
    2440:	613b      	str	r3, [r7, #16]
/home/sepideh/optee-qemu/optee_os/lib/libutils/isoc/bget_malloc.c:434
    2442:	693b      	ldr	r3, [r7, #16]
    2444:	6a3a      	ldr	r2, [r7, #32]
    2446:	4619      	mov	r1, r3
    2448:	68f8      	ldr	r0, [r7, #12]
    244a:	f7ff fa85 	bl	1958 <bgetr>
    244e:	6178      	str	r0, [r7, #20]
    2450:	e002      	b.n	2458 <raw_realloc+0x8c>
/home/sepideh/optee-qemu/optee_os/lib/libutils/isoc/bget_malloc.c:424
    2452:	bf00      	nop
    2454:	e000      	b.n	2458 <raw_realloc+0x8c>
/home/sepideh/optee-qemu/optee_os/lib/libutils/isoc/bget_malloc.c:426
    2456:	bf00      	nop
/home/sepideh/optee-qemu/optee_os/lib/libutils/isoc/bget_malloc.c:436
    2458:	6a3a      	ldr	r2, [r7, #32]
    245a:	6839      	ldr	r1, [r7, #0]
    245c:	6978      	ldr	r0, [r7, #20]
    245e:	f7ff fd71 	bl	1f44 <raw_malloc_return_hook>
/home/sepideh/optee-qemu/optee_os/lib/libutils/isoc/bget_malloc.c:438
    2462:	697b      	ldr	r3, [r7, #20]
/home/sepideh/optee-qemu/optee_os/lib/libutils/isoc/bget_malloc.c:439
    2464:	4618      	mov	r0, r3
    2466:	f107 0718 	add.w	r7, r7, #24
    246a:	46bd      	mov	sp, r7
    246c:	bd80      	pop	{r7, pc}

0000246e <bget_buf_size>:
bget_buf_size():
/home/sepideh/optee-qemu/optee_os/lib/libutils/isoc/bget_malloc.c:443
    246e:	e96d 7e02 	strd	r7, lr, [sp, #-8]!
    2472:	b084      	sub	sp, #16
    2474:	af00      	add	r7, sp, #0
    2476:	6078      	str	r0, [r7, #4]
/home/sepideh/optee-qemu/optee_os/lib/libutils/isoc/bget_malloc.c:447
    2478:	687b      	ldr	r3, [r7, #4]
    247a:	f1a3 0308 	sub.w	r3, r3, #8
    247e:	60fb      	str	r3, [r7, #12]
/home/sepideh/optee-qemu/optee_os/lib/libutils/isoc/bget_malloc.c:448
    2480:	68fb      	ldr	r3, [r7, #12]
    2482:	685b      	ldr	r3, [r3, #4]
    2484:	f1c3 0300 	rsb	r3, r3, #0
    2488:	60bb      	str	r3, [r7, #8]
/home/sepideh/optee-qemu/optee_os/lib/libutils/isoc/bget_malloc.c:458
    248a:	68bb      	ldr	r3, [r7, #8]
    248c:	f1a3 0308 	sub.w	r3, r3, #8
    2490:	60bb      	str	r3, [r7, #8]
/home/sepideh/optee-qemu/optee_os/lib/libutils/isoc/bget_malloc.c:459
    2492:	68bb      	ldr	r3, [r7, #8]
    2494:	2b00      	cmp	r3, #0
    2496:	dc0b      	bgt.n	24b0 <bget_buf_size+0x42>
/home/sepideh/optee-qemu/optee_os/lib/libutils/isoc/bget_malloc.c:459 (discriminator 1)
    2498:	4b08      	ldr	r3, [pc, #32]	; (24bc <bget_buf_size+0x4e>)
    249a:	447b      	add	r3, pc
    249c:	f240 12cb 	movw	r2, #459	; 0x1cb
    24a0:	4907      	ldr	r1, [pc, #28]	; (24c0 <bget_buf_size+0x52>)
    24a2:	4479      	add	r1, pc
    24a4:	4807      	ldr	r0, [pc, #28]	; (24c4 <bget_buf_size+0x56>)
    24a6:	4478      	add	r0, pc
    24a8:	f001 fcac 	bl	3e04 <_assert_log>
    24ac:	f001 fcce 	bl	3e4c <_assert_break>
/home/sepideh/optee-qemu/optee_os/lib/libutils/isoc/bget_malloc.c:460
    24b0:	68bb      	ldr	r3, [r7, #8]
/home/sepideh/optee-qemu/optee_os/lib/libutils/isoc/bget_malloc.c:461
    24b2:	4618      	mov	r0, r3
    24b4:	f107 0710 	add.w	r7, r7, #16
    24b8:	46bd      	mov	sp, r7
    24ba:	bd80      	pop	{r7, pc}
    24bc:	0001130a 	.word	0x0001130a
    24c0:	0001128e 	.word	0x0001128e
    24c4:	00011092 	.word	0x00011092

000024c8 <malloc>:
malloc():
/home/sepideh/optee-qemu/optee_os/lib/libutils/isoc/bget_malloc.c:669
    24c8:	e96d 7e02 	strd	r7, lr, [sp, #-8]!
    24cc:	b084      	sub	sp, #16
    24ce:	af00      	add	r7, sp, #0
    24d0:	6078      	str	r0, [r7, #4]
/home/sepideh/optee-qemu/optee_os/lib/libutils/isoc/bget_malloc.c:671
    24d2:	4b0e      	ldr	r3, [pc, #56]	; (250c <malloc+0x44>)
    24d4:	447b      	add	r3, pc
    24d6:	4618      	mov	r0, r3
    24d8:	f7ff fd0c 	bl	1ef4 <malloc_lock>
    24dc:	60f8      	str	r0, [r7, #12]
/home/sepideh/optee-qemu/optee_os/lib/libutils/isoc/bget_malloc.c:673
    24de:	4b0c      	ldr	r3, [pc, #48]	; (2510 <malloc+0x48>)
    24e0:	447b      	add	r3, pc
    24e2:	687a      	ldr	r2, [r7, #4]
    24e4:	f04f 0100 	mov.w	r1, #0
    24e8:	f04f 0000 	mov.w	r0, #0
    24ec:	f7ff fe89 	bl	2202 <raw_malloc>
    24f0:	60b8      	str	r0, [r7, #8]
/home/sepideh/optee-qemu/optee_os/lib/libutils/isoc/bget_malloc.c:674
    24f2:	68f9      	ldr	r1, [r7, #12]
    24f4:	4b07      	ldr	r3, [pc, #28]	; (2514 <malloc+0x4c>)
    24f6:	447b      	add	r3, pc
    24f8:	4618      	mov	r0, r3
    24fa:	f7ff fd09 	bl	1f10 <malloc_unlock>
/home/sepideh/optee-qemu/optee_os/lib/libutils/isoc/bget_malloc.c:675
    24fe:	68bb      	ldr	r3, [r7, #8]
/home/sepideh/optee-qemu/optee_os/lib/libutils/isoc/bget_malloc.c:676
    2500:	4618      	mov	r0, r3
    2502:	f107 0710 	add.w	r7, r7, #16
    2506:	46bd      	mov	sp, r7
    2508:	bd80      	pop	{r7, pc}
    250a:	bf00      	nop
    250c:	00013de4 	.word	0x00013de4
    2510:	00013dd8 	.word	0x00013dd8
    2514:	00013dc2 	.word	0x00013dc2

00002518 <free_helper>:
free_helper():
/home/sepideh/optee-qemu/optee_os/lib/libutils/isoc/bget_malloc.c:679
    2518:	e96d 7e02 	strd	r7, lr, [sp, #-8]!
    251c:	b084      	sub	sp, #16
    251e:	af00      	add	r7, sp, #0
    2520:	6078      	str	r0, [r7, #4]
    2522:	460b      	mov	r3, r1
    2524:	70fb      	strb	r3, [r7, #3]
/home/sepideh/optee-qemu/optee_os/lib/libutils/isoc/bget_malloc.c:680
    2526:	4b0c      	ldr	r3, [pc, #48]	; (2558 <free_helper+0x40>)
    2528:	447b      	add	r3, pc
    252a:	4618      	mov	r0, r3
    252c:	f7ff fce2 	bl	1ef4 <malloc_lock>
    2530:	60f8      	str	r0, [r7, #12]
/home/sepideh/optee-qemu/optee_os/lib/libutils/isoc/bget_malloc.c:682
    2532:	78fb      	ldrb	r3, [r7, #3]
    2534:	461a      	mov	r2, r3
    2536:	4b09      	ldr	r3, [pc, #36]	; (255c <free_helper+0x44>)
    2538:	447b      	add	r3, pc
    253a:	4619      	mov	r1, r3
    253c:	6878      	ldr	r0, [r7, #4]
    253e:	f7ff feb2 	bl	22a6 <raw_free>
/home/sepideh/optee-qemu/optee_os/lib/libutils/isoc/bget_malloc.c:683
    2542:	68f9      	ldr	r1, [r7, #12]
    2544:	4b06      	ldr	r3, [pc, #24]	; (2560 <free_helper+0x48>)
    2546:	447b      	add	r3, pc
    2548:	4618      	mov	r0, r3
    254a:	f7ff fce1 	bl	1f10 <malloc_unlock>
/home/sepideh/optee-qemu/optee_os/lib/libutils/isoc/bget_malloc.c:684
    254e:	bf00      	nop
    2550:	f107 0710 	add.w	r7, r7, #16
    2554:	46bd      	mov	sp, r7
    2556:	bd80      	pop	{r7, pc}
    2558:	00013d90 	.word	0x00013d90
    255c:	00013d80 	.word	0x00013d80
    2560:	00013d72 	.word	0x00013d72

00002564 <calloc>:
calloc():
/home/sepideh/optee-qemu/optee_os/lib/libutils/isoc/bget_malloc.c:687
    2564:	e96d 7e02 	strd	r7, lr, [sp, #-8]!
    2568:	b086      	sub	sp, #24
    256a:	af02      	add	r7, sp, #8
    256c:	6078      	str	r0, [r7, #4]
    256e:	6039      	str	r1, [r7, #0]
/home/sepideh/optee-qemu/optee_os/lib/libutils/isoc/bget_malloc.c:689
    2570:	4b0e      	ldr	r3, [pc, #56]	; (25ac <calloc+0x48>)
    2572:	447b      	add	r3, pc
    2574:	4618      	mov	r0, r3
    2576:	f7ff fcbd 	bl	1ef4 <malloc_lock>
    257a:	60f8      	str	r0, [r7, #12]
/home/sepideh/optee-qemu/optee_os/lib/libutils/isoc/bget_malloc.c:691
    257c:	4b0c      	ldr	r3, [pc, #48]	; (25b0 <calloc+0x4c>)
    257e:	447b      	add	r3, pc
    2580:	9300      	str	r3, [sp, #0]
    2582:	683b      	ldr	r3, [r7, #0]
    2584:	687a      	ldr	r2, [r7, #4]
    2586:	f04f 0100 	mov.w	r1, #0
    258a:	f04f 0000 	mov.w	r0, #0
    258e:	f7ff fea3 	bl	22d8 <raw_calloc>
    2592:	60b8      	str	r0, [r7, #8]
/home/sepideh/optee-qemu/optee_os/lib/libutils/isoc/bget_malloc.c:692
    2594:	68f9      	ldr	r1, [r7, #12]
    2596:	4b07      	ldr	r3, [pc, #28]	; (25b4 <calloc+0x50>)
    2598:	447b      	add	r3, pc
    259a:	4618      	mov	r0, r3
    259c:	f7ff fcb8 	bl	1f10 <malloc_unlock>
/home/sepideh/optee-qemu/optee_os/lib/libutils/isoc/bget_malloc.c:693
    25a0:	68bb      	ldr	r3, [r7, #8]
/home/sepideh/optee-qemu/optee_os/lib/libutils/isoc/bget_malloc.c:694
    25a2:	4618      	mov	r0, r3
    25a4:	f107 0710 	add.w	r7, r7, #16
    25a8:	46bd      	mov	sp, r7
    25aa:	bd80      	pop	{r7, pc}
    25ac:	00013d46 	.word	0x00013d46
    25b0:	00013d3a 	.word	0x00013d3a
    25b4:	00013d20 	.word	0x00013d20

000025b8 <realloc_unlocked>:
realloc_unlocked():
/home/sepideh/optee-qemu/optee_os/lib/libutils/isoc/bget_malloc.c:698
    25b8:	e96d 7e02 	strd	r7, lr, [sp, #-8]!
    25bc:	b086      	sub	sp, #24
    25be:	af02      	add	r7, sp, #8
    25c0:	60f8      	str	r0, [r7, #12]
    25c2:	60b9      	str	r1, [r7, #8]
    25c4:	607a      	str	r2, [r7, #4]
/home/sepideh/optee-qemu/optee_os/lib/libutils/isoc/bget_malloc.c:699
    25c6:	68fb      	ldr	r3, [r7, #12]
    25c8:	9300      	str	r3, [sp, #0]
    25ca:	687b      	ldr	r3, [r7, #4]
    25cc:	f04f 0200 	mov.w	r2, #0
    25d0:	f04f 0100 	mov.w	r1, #0
    25d4:	68b8      	ldr	r0, [r7, #8]
    25d6:	f7ff fef9 	bl	23cc <raw_realloc>
    25da:	4603      	mov	r3, r0
/home/sepideh/optee-qemu/optee_os/lib/libutils/isoc/bget_malloc.c:700
    25dc:	4618      	mov	r0, r3
    25de:	f107 0710 	add.w	r7, r7, #16
    25e2:	46bd      	mov	sp, r7
    25e4:	bd80      	pop	{r7, pc}

000025e6 <realloc>:
realloc():
/home/sepideh/optee-qemu/optee_os/lib/libutils/isoc/bget_malloc.c:703
    25e6:	e96d 7e02 	strd	r7, lr, [sp, #-8]!
    25ea:	b084      	sub	sp, #16
    25ec:	af00      	add	r7, sp, #0
    25ee:	6078      	str	r0, [r7, #4]
    25f0:	6039      	str	r1, [r7, #0]
/home/sepideh/optee-qemu/optee_os/lib/libutils/isoc/bget_malloc.c:705
    25f2:	4b0d      	ldr	r3, [pc, #52]	; (2628 <realloc+0x42>)
    25f4:	447b      	add	r3, pc
    25f6:	4618      	mov	r0, r3
    25f8:	f7ff fc7c 	bl	1ef4 <malloc_lock>
    25fc:	60f8      	str	r0, [r7, #12]
/home/sepideh/optee-qemu/optee_os/lib/libutils/isoc/bget_malloc.c:707
    25fe:	683a      	ldr	r2, [r7, #0]
    2600:	6879      	ldr	r1, [r7, #4]
    2602:	4b0a      	ldr	r3, [pc, #40]	; (262c <realloc+0x46>)
    2604:	447b      	add	r3, pc
    2606:	4618      	mov	r0, r3
    2608:	f7ff ffd6 	bl	25b8 <realloc_unlocked>
    260c:	60b8      	str	r0, [r7, #8]
/home/sepideh/optee-qemu/optee_os/lib/libutils/isoc/bget_malloc.c:708
    260e:	68f9      	ldr	r1, [r7, #12]
    2610:	4b07      	ldr	r3, [pc, #28]	; (2630 <realloc+0x4a>)
    2612:	447b      	add	r3, pc
    2614:	4618      	mov	r0, r3
    2616:	f7ff fc7b 	bl	1f10 <malloc_unlock>
/home/sepideh/optee-qemu/optee_os/lib/libutils/isoc/bget_malloc.c:709
    261a:	68bb      	ldr	r3, [r7, #8]
/home/sepideh/optee-qemu/optee_os/lib/libutils/isoc/bget_malloc.c:710
    261c:	4618      	mov	r0, r3
    261e:	f107 0710 	add.w	r7, r7, #16
    2622:	46bd      	mov	sp, r7
    2624:	bd80      	pop	{r7, pc}
    2626:	bf00      	nop
    2628:	00013cc4 	.word	0x00013cc4
    262c:	00013cb4 	.word	0x00013cb4
    2630:	00013ca6 	.word	0x00013ca6

00002634 <get_payload_start_size>:
get_payload_start_size():
/home/sepideh/optee-qemu/optee_os/lib/libutils/isoc/bget_malloc.c:713
    2634:	e96d 7e02 	strd	r7, lr, [sp, #-8]!
    2638:	b082      	sub	sp, #8
    263a:	af00      	add	r7, sp, #0
    263c:	6078      	str	r0, [r7, #4]
    263e:	6039      	str	r1, [r7, #0]
/home/sepideh/optee-qemu/optee_os/lib/libutils/isoc/bget_malloc.c:714
    2640:	6878      	ldr	r0, [r7, #4]
    2642:	f7ff ff14 	bl	246e <bget_buf_size>
    2646:	4603      	mov	r3, r0
    2648:	461a      	mov	r2, r3
    264a:	683b      	ldr	r3, [r7, #0]
    264c:	601a      	str	r2, [r3, #0]
/home/sepideh/optee-qemu/optee_os/lib/libutils/isoc/bget_malloc.c:715
    264e:	687b      	ldr	r3, [r7, #4]
/home/sepideh/optee-qemu/optee_os/lib/libutils/isoc/bget_malloc.c:716
    2650:	4618      	mov	r0, r3
    2652:	f107 0708 	add.w	r7, r7, #8
    2656:	46bd      	mov	sp, r7
    2658:	bd80      	pop	{r7, pc}

0000265a <free>:
free():
/home/sepideh/optee-qemu/optee_os/lib/libutils/isoc/bget_malloc.c:721
    265a:	e96d 7e02 	strd	r7, lr, [sp, #-8]!
    265e:	b082      	sub	sp, #8
    2660:	af00      	add	r7, sp, #0
    2662:	6078      	str	r0, [r7, #4]
/home/sepideh/optee-qemu/optee_os/lib/libutils/isoc/bget_malloc.c:722
    2664:	f04f 0100 	mov.w	r1, #0
    2668:	6878      	ldr	r0, [r7, #4]
    266a:	f7ff ff55 	bl	2518 <free_helper>
/home/sepideh/optee-qemu/optee_os/lib/libutils/isoc/bget_malloc.c:723
    266e:	bf00      	nop
    2670:	f107 0708 	add.w	r7, r7, #8
    2674:	46bd      	mov	sp, r7
    2676:	bd80      	pop	{r7, pc}

00002678 <free_wipe>:
free_wipe():
/home/sepideh/optee-qemu/optee_os/lib/libutils/isoc/bget_malloc.c:726
    2678:	e96d 7e02 	strd	r7, lr, [sp, #-8]!
    267c:	b082      	sub	sp, #8
    267e:	af00      	add	r7, sp, #0
    2680:	6078      	str	r0, [r7, #4]
/home/sepideh/optee-qemu/optee_os/lib/libutils/isoc/bget_malloc.c:727
    2682:	f04f 0101 	mov.w	r1, #1
    2686:	6878      	ldr	r0, [r7, #4]
    2688:	f7ff ff46 	bl	2518 <free_helper>
/home/sepideh/optee-qemu/optee_os/lib/libutils/isoc/bget_malloc.c:728
    268c:	bf00      	nop
    268e:	f107 0708 	add.w	r7, r7, #8
    2692:	46bd      	mov	sp, r7
    2694:	bd80      	pop	{r7, pc}

00002696 <gen_malloc_add_pool>:
gen_malloc_add_pool():
/home/sepideh/optee-qemu/optee_os/lib/libutils/isoc/bget_malloc.c:731
    2696:	e96d 7e02 	strd	r7, lr, [sp, #-8]!
    269a:	b08a      	sub	sp, #40	; 0x28
    269c:	af00      	add	r7, sp, #0
    269e:	60f8      	str	r0, [r7, #12]
    26a0:	60b9      	str	r1, [r7, #8]
    26a2:	607a      	str	r2, [r7, #4]
/home/sepideh/optee-qemu/optee_os/lib/libutils/isoc/bget_malloc.c:735
    26a4:	68bb      	ldr	r3, [r7, #8]
    26a6:	627b      	str	r3, [r7, #36]	; 0x24
/home/sepideh/optee-qemu/optee_os/lib/libutils/isoc/bget_malloc.c:736
    26a8:	6a7a      	ldr	r2, [r7, #36]	; 0x24
    26aa:	687b      	ldr	r3, [r7, #4]
    26ac:	4413      	add	r3, r2
    26ae:	623b      	str	r3, [r7, #32]
/home/sepideh/optee-qemu/optee_os/lib/libutils/isoc/bget_malloc.c:737
    26b0:	f04f 0318 	mov.w	r3, #24
    26b4:	61fb      	str	r3, [r7, #28]
/home/sepideh/optee-qemu/optee_os/lib/libutils/isoc/bget_malloc.c:742
    26b6:	6a7b      	ldr	r3, [r7, #36]	; 0x24
    26b8:	f103 0307 	add.w	r3, r3, #7
    26bc:	f023 0307 	bic.w	r3, r3, #7
    26c0:	627b      	str	r3, [r7, #36]	; 0x24
/home/sepideh/optee-qemu/optee_os/lib/libutils/isoc/bget_malloc.c:743
    26c2:	6a3b      	ldr	r3, [r7, #32]
    26c4:	f023 0307 	bic.w	r3, r3, #7
    26c8:	623b      	str	r3, [r7, #32]
/home/sepideh/optee-qemu/optee_os/lib/libutils/isoc/bget_malloc.c:744
    26ca:	6a7a      	ldr	r2, [r7, #36]	; 0x24
    26cc:	6a3b      	ldr	r3, [r7, #32]
    26ce:	429a      	cmp	r2, r3
    26d0:	d30b      	bcc.n	26ea <gen_malloc_add_pool+0x54>
/home/sepideh/optee-qemu/optee_os/lib/libutils/isoc/bget_malloc.c:744 (discriminator 1)
    26d2:	4b3c      	ldr	r3, [pc, #240]	; (27c4 <gen_malloc_add_pool+0x12e>)
    26d4:	447b      	add	r3, pc
    26d6:	f44f 723a 	mov.w	r2, #744	; 0x2e8
    26da:	493b      	ldr	r1, [pc, #236]	; (27c8 <gen_malloc_add_pool+0x132>)
    26dc:	4479      	add	r1, pc
    26de:	483b      	ldr	r0, [pc, #236]	; (27cc <gen_malloc_add_pool+0x136>)
    26e0:	4478      	add	r0, pc
    26e2:	f001 fb8f 	bl	3e04 <_assert_log>
    26e6:	f001 fbb1 	bl	3e4c <_assert_break>
/home/sepideh/optee-qemu/optee_os/lib/libutils/isoc/bget_malloc.c:746
    26ea:	6a3a      	ldr	r2, [r7, #32]
    26ec:	6a7b      	ldr	r3, [r7, #36]	; 0x24
    26ee:	eba2 0303 	sub.w	r3, r2, r3
    26f2:	69fa      	ldr	r2, [r7, #28]
    26f4:	429a      	cmp	r2, r3
    26f6:	d860      	bhi.n	27ba <gen_malloc_add_pool+0x124>
/home/sepideh/optee-qemu/optee_os/lib/libutils/isoc/bget_malloc.c:751
    26f8:	68f8      	ldr	r0, [r7, #12]
    26fa:	f7ff fbfb 	bl	1ef4 <malloc_lock>
    26fe:	61b8      	str	r0, [r7, #24]
/home/sepideh/optee-qemu/optee_os/lib/libutils/isoc/bget_malloc.c:753
    2700:	6a78      	ldr	r0, [r7, #36]	; 0x24
    2702:	6a3a      	ldr	r2, [r7, #32]
    2704:	6a7b      	ldr	r3, [r7, #36]	; 0x24
    2706:	eba2 0303 	sub.w	r3, r2, r3
    270a:	4619      	mov	r1, r3
    270c:	f7fe ff62 	bl	15d4 <tag_asan_free>
/home/sepideh/optee-qemu/optee_os/lib/libutils/isoc/bget_malloc.c:754
    2710:	6a78      	ldr	r0, [r7, #36]	; 0x24
    2712:	6a3a      	ldr	r2, [r7, #32]
    2714:	6a7b      	ldr	r3, [r7, #36]	; 0x24
    2716:	eba2 0303 	sub.w	r3, r2, r3
    271a:	4619      	mov	r1, r3
    271c:	68fb      	ldr	r3, [r7, #12]
    271e:	461a      	mov	r2, r3
    2720:	f7ff fb16 	bl	1d50 <bpool>
/home/sepideh/optee-qemu/optee_os/lib/libutils/isoc/bget_malloc.c:755
    2724:	68fb      	ldr	r3, [r7, #12]
    2726:	6a1b      	ldr	r3, [r3, #32]
    2728:	f103 0301 	add.w	r3, r3, #1
    272c:	617b      	str	r3, [r7, #20]
/home/sepideh/optee-qemu/optee_os/lib/libutils/isoc/bget_malloc.c:756
    272e:	68fb      	ldr	r3, [r7, #12]
    2730:	69d9      	ldr	r1, [r3, #28]
    2732:	697b      	ldr	r3, [r7, #20]
    2734:	ea4f 03c3 	mov.w	r3, r3, lsl #3
    2738:	461a      	mov	r2, r3
    273a:	68f8      	ldr	r0, [r7, #12]
    273c:	f7ff ff3c 	bl	25b8 <realloc_unlocked>
    2740:	6138      	str	r0, [r7, #16]
/home/sepideh/optee-qemu/optee_os/lib/libutils/isoc/bget_malloc.c:757
    2742:	693b      	ldr	r3, [r7, #16]
    2744:	2b00      	cmp	r3, #0
    2746:	d10b      	bne.n	2760 <gen_malloc_add_pool+0xca>
/home/sepideh/optee-qemu/optee_os/lib/libutils/isoc/bget_malloc.c:757 (discriminator 1)
    2748:	4b21      	ldr	r3, [pc, #132]	; (27d0 <gen_malloc_add_pool+0x13a>)
    274a:	447b      	add	r3, pc
    274c:	f240 22f5 	movw	r2, #757	; 0x2f5
    2750:	4920      	ldr	r1, [pc, #128]	; (27d4 <gen_malloc_add_pool+0x13e>)
    2752:	4479      	add	r1, pc
    2754:	4820      	ldr	r0, [pc, #128]	; (27d8 <gen_malloc_add_pool+0x142>)
    2756:	4478      	add	r0, pc
    2758:	f001 fb54 	bl	3e04 <_assert_log>
    275c:	f001 fb76 	bl	3e4c <_assert_break>
/home/sepideh/optee-qemu/optee_os/lib/libutils/isoc/bget_malloc.c:758
    2760:	68fb      	ldr	r3, [r7, #12]
    2762:	693a      	ldr	r2, [r7, #16]
    2764:	61da      	str	r2, [r3, #28]
/home/sepideh/optee-qemu/optee_os/lib/libutils/isoc/bget_malloc.c:759
    2766:	68fb      	ldr	r3, [r7, #12]
    2768:	69da      	ldr	r2, [r3, #28]
    276a:	68fb      	ldr	r3, [r7, #12]
    276c:	6a1b      	ldr	r3, [r3, #32]
    276e:	ea4f 03c3 	mov.w	r3, r3, lsl #3
    2772:	4413      	add	r3, r2
    2774:	6a7a      	ldr	r2, [r7, #36]	; 0x24
    2776:	601a      	str	r2, [r3, #0]
/home/sepideh/optee-qemu/optee_os/lib/libutils/isoc/bget_malloc.c:760
    2778:	68fb      	ldr	r3, [r7, #12]
    277a:	69da      	ldr	r2, [r3, #28]
    277c:	68fb      	ldr	r3, [r7, #12]
    277e:	6a1b      	ldr	r3, [r3, #32]
    2780:	ea4f 03c3 	mov.w	r3, r3, lsl #3
    2784:	4413      	add	r3, r2
    2786:	6a39      	ldr	r1, [r7, #32]
    2788:	6a7a      	ldr	r2, [r7, #36]	; 0x24
    278a:	eba1 0202 	sub.w	r2, r1, r2
    278e:	605a      	str	r2, [r3, #4]
/home/sepideh/optee-qemu/optee_os/lib/libutils/isoc/bget_malloc.c:762
    2790:	68fb      	ldr	r3, [r7, #12]
    2792:	6cda      	ldr	r2, [r3, #76]	; 0x4c
    2794:	68fb      	ldr	r3, [r7, #12]
    2796:	69d9      	ldr	r1, [r3, #28]
    2798:	68fb      	ldr	r3, [r7, #12]
    279a:	6a1b      	ldr	r3, [r3, #32]
    279c:	ea4f 03c3 	mov.w	r3, r3, lsl #3
    27a0:	440b      	add	r3, r1
    27a2:	685b      	ldr	r3, [r3, #4]
    27a4:	441a      	add	r2, r3
    27a6:	68fb      	ldr	r3, [r7, #12]
    27a8:	64da      	str	r2, [r3, #76]	; 0x4c
/home/sepideh/optee-qemu/optee_os/lib/libutils/isoc/bget_malloc.c:764
    27aa:	68fb      	ldr	r3, [r7, #12]
    27ac:	697a      	ldr	r2, [r7, #20]
    27ae:	621a      	str	r2, [r3, #32]
/home/sepideh/optee-qemu/optee_os/lib/libutils/isoc/bget_malloc.c:765
    27b0:	69b9      	ldr	r1, [r7, #24]
    27b2:	68f8      	ldr	r0, [r7, #12]
    27b4:	f7ff fbac 	bl	1f10 <malloc_unlock>
    27b8:	e000      	b.n	27bc <gen_malloc_add_pool+0x126>
/home/sepideh/optee-qemu/optee_os/lib/libutils/isoc/bget_malloc.c:748
    27ba:	bf00      	nop
/home/sepideh/optee-qemu/optee_os/lib/libutils/isoc/bget_malloc.c:766
    27bc:	f107 0728 	add.w	r7, r7, #40	; 0x28
    27c0:	46bd      	mov	sp, r7
    27c2:	bd80      	pop	{r7, pc}
    27c4:	000110e0 	.word	0x000110e0
    27c8:	00011054 	.word	0x00011054
    27cc:	00011070 	.word	0x00011070
    27d0:	0001106a 	.word	0x0001106a
    27d4:	00010fde 	.word	0x00010fde
    27d8:	00011006 	.word	0x00011006

000027dc <gen_malloc_buffer_is_within_alloced>:
gen_malloc_buffer_is_within_alloced():
/home/sepideh/optee-qemu/optee_os/lib/libutils/isoc/bget_malloc.c:770
    27dc:	e96d 7e02 	strd	r7, lr, [sp, #-8]!
    27e0:	b08e      	sub	sp, #56	; 0x38
    27e2:	af00      	add	r7, sp, #0
    27e4:	60f8      	str	r0, [r7, #12]
    27e6:	60b9      	str	r1, [r7, #8]
    27e8:	607a      	str	r2, [r7, #4]
/home/sepideh/optee-qemu/optee_os/lib/libutils/isoc/bget_malloc.c:773
    27ea:	68bb      	ldr	r3, [r7, #8]
    27ec:	633b      	str	r3, [r7, #48]	; 0x30
/home/sepideh/optee-qemu/optee_os/lib/libutils/isoc/bget_malloc.c:774
    27ee:	6b3a      	ldr	r2, [r7, #48]	; 0x30
    27f0:	687b      	ldr	r3, [r7, #4]
    27f2:	4413      	add	r3, r2
    27f4:	62fb      	str	r3, [r7, #44]	; 0x2c
/home/sepideh/optee-qemu/optee_os/lib/libutils/isoc/bget_malloc.c:775
    27f6:	f04f 0300 	mov.w	r3, #0
    27fa:	f887 3037 	strb.w	r3, [r7, #55]	; 0x37
/home/sepideh/optee-qemu/optee_os/lib/libutils/isoc/bget_malloc.c:776
    27fe:	68f8      	ldr	r0, [r7, #12]
    2800:	f7ff fb78 	bl	1ef4 <malloc_lock>
    2804:	62b8      	str	r0, [r7, #40]	; 0x28
/home/sepideh/optee-qemu/optee_os/lib/libutils/isoc/bget_malloc.c:778
    2806:	68f8      	ldr	r0, [r7, #12]
    2808:	f7ff fc32 	bl	2070 <raw_malloc_validate_pools>
/home/sepideh/optee-qemu/optee_os/lib/libutils/isoc/bget_malloc.c:781
    280c:	6b3a      	ldr	r2, [r7, #48]	; 0x30
    280e:	6afb      	ldr	r3, [r7, #44]	; 0x2c
    2810:	429a      	cmp	r2, r3
    2812:	d82b      	bhi.n	286c <gen_malloc_buffer_is_within_alloced+0x90>
/home/sepideh/optee-qemu/optee_os/lib/libutils/isoc/bget_malloc.c:784
    2814:	f107 0318 	add.w	r3, r7, #24
    2818:	4619      	mov	r1, r3
    281a:	68f8      	ldr	r0, [r7, #12]
    281c:	f7ff fc34 	bl	2088 <bpool_foreach_iterator_init>
    2820:	e018      	b.n	2854 <gen_malloc_buffer_is_within_alloced+0x78>
/home/sepideh/optee-qemu/optee_os/lib/libutils/isoc/bget_malloc.c:789
    2822:	697b      	ldr	r3, [r7, #20]
    2824:	f107 0210 	add.w	r2, r7, #16
    2828:	4611      	mov	r1, r2
    282a:	4618      	mov	r0, r3
    282c:	f7ff ff02 	bl	2634 <get_payload_start_size>
    2830:	6278      	str	r0, [r7, #36]	; 0x24
/home/sepideh/optee-qemu/optee_os/lib/libutils/isoc/bget_malloc.c:790
    2832:	693b      	ldr	r3, [r7, #16]
    2834:	6a7a      	ldr	r2, [r7, #36]	; 0x24
    2836:	4413      	add	r3, r2
    2838:	623b      	str	r3, [r7, #32]
